EXPORTS 
	??_R0?AU?$big_any_policy@Uempty_any@anyimpl@cvflann@@@anyimpl@cvflann@@@8 	 DATA
	??_R0?AU?$big_any_policy@VString@cv@@@anyimpl@cvflann@@@8 	 DATA
	??_R0?AU?$big_any_policy@W4flann_algorithm_t@cvflann@@@anyimpl@cvflann@@@8 	 DATA
	??_R0?AU?$big_any_policy@W4flann_centers_init_t@cvflann@@@anyimpl@cvflann@@@8 	 DATA
	??_R0?AU?$small_any_policy@H@anyimpl@cvflann@@@8 	 DATA
	??_R0?AU?$small_any_policy@I@anyimpl@cvflann@@@8 	 DATA
	??_R0?AU?$small_any_policy@M@anyimpl@cvflann@@@8 	 DATA
	??_R0?AU?$small_any_policy@PEBD@anyimpl@cvflann@@@8 	 DATA
	??_R0?AU?$small_any_policy@_N@anyimpl@cvflann@@@8 	 DATA
	??_R0?AU?$typed_base_any_policy@H@anyimpl@cvflann@@@8 	 DATA
	??_R0?AU?$typed_base_any_policy@I@anyimpl@cvflann@@@8 	 DATA
	??_R0?AU?$typed_base_any_policy@M@anyimpl@cvflann@@@8 	 DATA
	??_R0?AU?$typed_base_any_policy@PEBD@anyimpl@cvflann@@@8 	 DATA
	??_R0?AU?$typed_base_any_policy@Uempty_any@anyimpl@cvflann@@@anyimpl@cvflann@@@8 	 DATA
	??_R0?AU?$typed_base_any_policy@VString@cv@@@anyimpl@cvflann@@@8 	 DATA
	??_R0?AU?$typed_base_any_policy@W4flann_algorithm_t@cvflann@@@anyimpl@cvflann@@@8 	 DATA
	??_R0?AU?$typed_base_any_policy@W4flann_centers_init_t@cvflann@@@anyimpl@cvflann@@@8 	 DATA
	??_R0?AU?$typed_base_any_policy@_N@anyimpl@cvflann@@@8 	 DATA
	??_R0?AUbase_any_policy@anyimpl@cvflann@@@8 	 DATA
	??_R0?AUempty_any@anyimpl@cvflann@@@8 	 DATA
	??_R0?AVString@cv@@@8 	 DATA
	??_R0?AV_Generic_error_category@std@@@8 	 DATA
	??_R0?AV_System_error@std@@@8 	 DATA
	??_R0?AV_System_error_category@std@@@8 	 DATA
	??_R0?AVbad_alloc@std@@@8 	 DATA
	??_R0?AVbad_array_new_length@std@@@8 	 DATA
	??_R0?AVerror_category@std@@@8 	 DATA
	??_R0?AVexception@std@@@8 	 DATA
	??_R0?AVfilesystem_error@filesystem@std@@@8 	 DATA
	??_R0?AVruntime_error@std@@@8 	 DATA
	??_R0?AVsystem_error@std@@@8 	 DATA
	??_R0?AW4flann_algorithm_t@cvflann@@@8 	 DATA
	??_R0?AW4flann_centers_init_t@cvflann@@@8 	 DATA
	??_R0H@8 	 DATA
	??_R0I@8 	 DATA
	??_R0M@8 	 DATA
	??_R0PEBD@8 	 DATA
	??_R0_N@8 	 DATA
	?_Static@?1???$_Immortalize_memcpy_image@V_Generic_error_category@std@@@std@@YAAEBV_Generic_error_category@1@XZ@4V21@B 	 DATA
	?_Static@?1???$_Immortalize_memcpy_image@V_System_error_category@std@@@std@@YAAEBV_System_error_category@1@XZ@4V21@B 	 DATA
	?__LINE__Var@?0???0Mat@cv@@QEAA@$$QEAV12@@Z@4JA 	 DATA
	?__LINE__Var@?0???AMatSize@cv@@QEBAAEBHH@Z@4JA 	 DATA
	?__LINE__Var@?0??DeleteEmptyJsonCombine@Lev_PictureManager@@YAXAEBV?$basic_string@DU?$char_traits@D@std@@V?$allocator@D@2@@std@@@Z@4JA 	 DATA
	?__LINE__Var@?0??WriteJsonFile@Lev_PictureManager@@YA_NAEBVQString@@AEBV?$QList@UDet_Obj@Lev_PictureManager@@@@@Z@4JA 	 DATA
	?__LINE__Var@?0??_Adjust_manually_vector_aligned@std@@YAXAEAPEAXAEA_K@Z@4JA 	 DATA
	?__LINE__Var@?0??_Maklocwcs@std@@YAPEA_WPEB_W@Z@4JA 	 DATA
	?__LINE__Var@?0??loadJson@Lev_PictureManager@@YA?AV?$QList@UDet_Obj@Lev_PictureManager@@@@AEBVQString@@@Z@4JA 	 DATA
	?image_height@Lev_PictureManager@@3HA 	 DATA
	?image_width@Lev_PictureManager@@3HA 	 DATA
	?policy@?$SinglePolicy@H@anyimpl@cvflann@@0U?$small_any_policy@H@23@A 	 DATA
	?policy@?$SinglePolicy@I@anyimpl@cvflann@@0U?$small_any_policy@I@23@A 	 DATA
	?policy@?$SinglePolicy@M@anyimpl@cvflann@@0U?$small_any_policy@M@23@A 	 DATA
	?policy@?$SinglePolicy@PEBD@anyimpl@cvflann@@0U?$small_any_policy@PEBD@23@A 	 DATA
	?policy@?$SinglePolicy@Uempty_any@anyimpl@cvflann@@@anyimpl@cvflann@@0U?$big_any_policy@Uempty_any@anyimpl@cvflann@@@23@A 	 DATA
	?policy@?$SinglePolicy@VString@cv@@@anyimpl@cvflann@@0U?$big_any_policy@VString@cv@@@23@A 	 DATA
	?policy@?$SinglePolicy@W4flann_algorithm_t@cvflann@@@anyimpl@cvflann@@0U?$big_any_policy@W4flann_algorithm_t@cvflann@@@23@A 	 DATA
	?policy@?$SinglePolicy@W4flann_centers_init_t@cvflann@@@anyimpl@cvflann@@0U?$big_any_policy@W4flann_centers_init_t@cvflann@@@23@A 	 DATA
	?policy@?$SinglePolicy@_N@anyimpl@cvflann@@0U?$small_any_policy@_N@23@A 	 DATA
	??$?0$$V@?$_Compressed_pair@V?$allocator@D@std@@V?$_String_val@U?$_Simple_types@D@std@@@2@$00@std@@QEAA@U_Zero_then_variadic_args_t@1@@Z
	??$?0$$V@?$_Compressed_pair@V?$allocator@H@std@@V?$_Vector_val@U?$_Simple_types@H@std@@@2@$00@std@@QEAA@U_Zero_then_variadic_args_t@1@@Z
	??$?0$$V@?$_Compressed_pair@V?$allocator@V?$vector@VMat@cv@@V?$allocator@VMat@cv@@@std@@@std@@@std@@V?$_Vector_val@U?$_Simple_types@V?$vector@VMat@cv@@V?$allocator@VMat@cv@@@std@@@std@@@std@@@2@$00@std@@QEAA@U_Zero_then_variadic_args_t@1@@Z
	??$?0$$V@?$_Compressed_pair@V?$allocator@VMat@cv@@@std@@V?$_Vector_val@U?$_Simple_types@VMat@cv@@@std@@@2@$00@std@@QEAA@U_Zero_then_variadic_args_t@1@@Z
	??$?0$$V@?$_Compressed_pair@V?$allocator@_W@std@@V?$_String_val@U?$_Simple_types@_W@std@@@2@$00@std@@QEAA@U_Zero_then_variadic_args_t@1@@Z
	??$?0AEAV?$allocator@D@std@@$$V@?$_Compressed_pair@V?$allocator@D@std@@V?$_String_val@U?$_Simple_types@D@std@@@2@$00@std@@QEAA@U_One_then_variadic_args_t@1@AEAV?$allocator@D@1@@Z
	??$?0AEBV?$allocator@D@std@@$$V@?$_Compressed_pair@V?$allocator@D@std@@V?$_String_val@U?$_Simple_types@D@std@@@2@$00@std@@QEAA@U_One_then_variadic_args_t@1@AEBV?$allocator@D@1@@Z
	??$?0AEBV?$allocator@_W@std@@$$V@?$_Compressed_pair@V?$allocator@_W@std@@V?$_String_val@U?$_Simple_types@_W@std@@@2@$00@std@@QEAA@U_One_then_variadic_args_t@1@AEBV?$allocator@_W@1@@Z
	??$?0D@?$allocator@U_Container_proxy@std@@@std@@QEAA@AEBV?$allocator@D@1@@Z
	??$?0H@?$allocator@U_Container_proxy@std@@@std@@QEAA@AEBV?$allocator@H@1@@Z
	??$?0PEAD$0A@@?$basic_string@DU?$char_traits@D@std@@V?$allocator@D@2@@std@@QEAA@PEAD0AEBV?$allocator@D@1@@Z
	??$?0V?$allocator@D@std@@$$V@?$_Compressed_pair@V?$allocator@D@std@@V?$_String_val@U?$_Simple_types@D@std@@@2@$00@std@@QEAA@U_One_then_variadic_args_t@1@$$QEAV?$allocator@D@1@@Z
	??$?0V?$allocator@_W@std@@$$V@?$_Compressed_pair@V?$allocator@_W@std@@V?$_String_val@U?$_Simple_types@_W@std@@@2@$00@std@@QEAA@U_One_then_variadic_args_t@1@$$QEAV?$allocator@_W@1@@Z
	??$?0V?$basic_string@DU?$char_traits@D@std@@V?$allocator@D@2@@std@@$0A@@path@filesystem@std@@QEAA@AEBV?$basic_string@DU?$char_traits@D@std@@V?$allocator@D@2@@2@W4format@012@@Z
	??$?0V?$basic_string_view@_WU?$char_traits@_W@std@@@std@@$0A@@?$basic_string@_WU?$char_traits@_W@std@@V?$allocator@_W@2@@std@@QEAA@AEBV?$basic_string_view@_WU?$char_traits@_W@std@@@1@AEBV?$allocator@_W@1@@Z
	??$?0V?$basic_string_view@_WU?$char_traits@_W@std@@@std@@$0A@@path@filesystem@std@@QEAA@AEBV?$basic_string_view@_WU?$char_traits@_W@std@@@2@W4format@012@@Z
	??$?0V?$vector@VMat@cv@@V?$allocator@VMat@cv@@@std@@@std@@@?$allocator@U_Container_proxy@std@@@std@@QEAA@AEBV?$allocator@V?$vector@VMat@cv@@V?$allocator@VMat@cv@@@std@@@std@@@1@@Z
	??$?0VMat@cv@@@?$allocator@U_Container_proxy@std@@@std@@QEAA@AEBV?$allocator@VMat@cv@@@1@@Z
	??$?0_W@?$allocator@U_Container_proxy@std@@@std@@QEAA@AEBV?$allocator@_W@1@@Z
	??$?6U?$char_traits@D@std@@@std@@YAAEAV?$basic_ostream@DU?$char_traits@D@std@@@0@AEAV10@PEBD@Z
	??$?8DU?$char_traits@D@std@@V?$allocator@D@1@@std@@YA_NAEBV?$basic_string@DU?$char_traits@D@std@@V?$allocator@D@2@@0@QEBD@Z
	??$?HDU?$char_traits@D@std@@V?$allocator@D@1@@std@@YA?AV?$basic_string@DU?$char_traits@D@std@@V?$allocator@D@2@@0@$$QEAV10@0@Z
	??$?HDU?$char_traits@D@std@@V?$allocator@D@1@@std@@YA?AV?$basic_string@DU?$char_traits@D@std@@V?$allocator@D@2@@0@$$QEAV10@AEBV10@@Z
	??$?HDU?$char_traits@D@std@@V?$allocator@D@1@@std@@YA?AV?$basic_string@DU?$char_traits@D@std@@V?$allocator@D@2@@0@$$QEAV10@QEBD@Z
	??$?HDU?$char_traits@D@std@@V?$allocator@D@1@@std@@YA?AV?$basic_string@DU?$char_traits@D@std@@V?$allocator@D@2@@0@AEBV10@QEBD@Z
	??$?YV?$basic_string_view@DU?$char_traits@D@std@@@std@@$0A@@?$basic_string@DU?$char_traits@D@std@@V?$allocator@D@2@@std@@QEAAAEAV01@AEBV?$basic_string_view@DU?$char_traits@D@std@@@1@@Z
	??$_Adl_verify_range@PEADPEAD@std@@YAXAEBQEAD0@Z
	??$_Adl_verify_range@PEB_WPEB_W@std@@YAXAEBQEB_W0@Z
	??$_Alloc_proxy@V?$allocator@U_Container_proxy@std@@@std@@@_Container_base12@std@@QEAAX$$QEAV?$allocator@U_Container_proxy@std@@@1@@Z
	??$_Allocate@$0BA@U_Default_allocate_traits@std@@$0A@@std@@YAPEAX_K@Z
	??$_Allocate_manually_vector_aligned@U_Default_allocate_traits@std@@@std@@YAPEAX_K@Z
	??$_Allocators_equal@V?$allocator@D@std@@@std@@YA_NAEBV?$allocator@D@0@0@Z
	??$_Atomic_address_as@HU?$_Atomic_padded@H@std@@@std@@YAPEDHAEBU?$_Atomic_padded@H@0@@Z
	??$_Atomic_address_as@JU?$_Atomic_padded@H@std@@@std@@YAPECJAEAU?$_Atomic_padded@H@0@@Z
	??$_Bit_cast@_KT_Addr_storage@error_category@std@@$0A@@std@@YA_KAEBT_Addr_storage@error_category@0@@Z
	??$_Bitmask_includes_any@W4__std_fs_file_attr@@@std@@YA_NW4__std_fs_file_attr@@0@Z
	??$_Construct@$00PEAD@?$basic_string@DU?$char_traits@D@std@@V?$allocator@D@2@@std@@AEAAXQEAD_K@Z
	??$_Construct@$00PEBD@?$basic_string@DU?$char_traits@D@std@@V?$allocator@D@2@@std@@AEAAXQEBD_K@Z
	??$_Construct@$00PEB_W@?$basic_string@_WU?$char_traits@_W@std@@V?$allocator@_W@2@@std@@AEAAXQEB_W_K@Z
	??$_Construct@$01PEBD@?$basic_string@DU?$char_traits@D@std@@V?$allocator@D@2@@std@@AEAAXQEBD_K@Z
	??$_Construct@$01PEB_W@?$basic_string@_WU?$char_traits@_W@std@@V?$allocator@_W@2@@std@@AEAAXQEB_W_K@Z
	??$_Construct_in_place@PEADAEAPEAD@std@@YAXAEAPEAD0@Z
	??$_Construct_in_place@PEADAEBQEAD@std@@YAXAEAPEADAEBQEAD@Z
	??$_Construct_in_place@PEA_WAEBQEA_W@std@@YAXAEAPEA_WAEBQEA_W@Z
	??$_Construct_in_place@U_Container_proxy@std@@PEAU_Container_base12@2@@std@@YAXAEAU_Container_proxy@0@$$QEAPEAU_Container_base12@0@@Z
	??$_Convert_Source_to_wide@V?$basic_string@DU?$char_traits@D@std@@V?$allocator@D@2@@std@@U_Normal_conversion@filesystem@2@@filesystem@std@@YA?AV?$basic_string@_WU?$char_traits@_W@std@@V?$allocator@_W@2@@1@AEBV?$basic_string@DU?$char_traits@D@std@@V?$allocator@D@2@@1@U_Normal_conversion@01@@Z
	??$_Convert_Source_to_wide@V?$basic_string_view@_WU?$char_traits@_W@std@@@std@@U_Normal_conversion@filesystem@2@@filesystem@std@@YA?AV?$basic_string@_WU?$char_traits@_W@std@@V?$allocator@_W@2@@1@AEBV?$basic_string_view@_WU?$char_traits@_W@std@@@1@U_Normal_conversion@01@@Z
	??$_Convert_size@_K_K@std@@YA_K_K@Z
	??$_Convert_stringoid_to_wide@U_Normal_conversion@filesystem@std@@@filesystem@std@@YA?AV?$basic_string@_WU?$char_traits@_W@std@@V?$allocator@_W@2@@1@V?$basic_string_view@DU?$char_traits@D@std@@@1@U_Normal_conversion@01@@Z
	??$_Convert_stringoid_to_wide@U_Normal_conversion@filesystem@std@@@filesystem@std@@YA?AV?$basic_string@_WU?$char_traits@_W@std@@V?$allocator@_W@2@@1@V?$basic_string_view@_WU?$char_traits@_W@std@@@1@U_Normal_conversion@01@@Z
	??$_Convert_wide_to@U?$char_traits@D@std@@V?$allocator@D@2@D@filesystem@std@@YA?AV?$basic_string@DU?$char_traits@D@std@@V?$allocator@D@2@@1@V?$basic_string_view@_WU?$char_traits@_W@std@@@1@AEBV?$allocator@D@1@@Z
	??$_Convert_wide_to_narrow@U?$char_traits@D@std@@V?$allocator@D@2@@std@@YA?AV?$basic_string@DU?$char_traits@D@std@@V?$allocator@D@2@@0@W4__std_code_page@@V?$basic_string_view@_WU?$char_traits@_W@std@@@0@AEBV?$allocator@D@0@@Z
	??$_Convert_wide_to_narrow_replace_chars@U?$char_traits@D@std@@V?$allocator@D@2@@filesystem@std@@YA?AV?$basic_string@DU?$char_traits@D@std@@V?$allocator@D@2@@1@W4__std_code_page@@V?$basic_string_view@_WU?$char_traits@_W@std@@@1@AEBV?$allocator@D@1@@Z
	??$_Could_compare_equal_to_value_type@PEB_W_W@std@@YA_NAEB_W@Z
	??$_Deallocate@$0BA@$0A@@std@@YAXPEAX_K@Z
	??$_Deallocate_plain@V?$allocator@U_Container_proxy@std@@@std@@@std@@YAXAEAV?$allocator@U_Container_proxy@std@@@0@QEAU_Container_proxy@0@@Z
	??$_Delete_plain_internal@V?$allocator@U_Container_proxy@std@@@std@@@std@@YAXAEAV?$allocator@U_Container_proxy@std@@@0@QEAU_Container_proxy@0@@Z
	??$_Destroy_in_place@PEAD@std@@YAXAEAPEAD@Z
	??$_Destroy_in_place@PEA_W@std@@YAXAEAPEA_W@Z
	??$_Destroy_range@V?$allocator@H@std@@@std@@YAXPEAHQEAHAEAV?$allocator@H@0@@Z
	??$_Destroy_range@V?$allocator@V?$vector@VMat@cv@@V?$allocator@VMat@cv@@@std@@@std@@@std@@@std@@YAXPEAV?$vector@VMat@cv@@V?$allocator@VMat@cv@@@std@@@0@QEAV10@AEAV?$allocator@V?$vector@VMat@cv@@V?$allocator@VMat@cv@@@std@@@std@@@0@@Z
	??$_Destroy_range@V?$allocator@VMat@cv@@@std@@@std@@YAXPEAVMat@cv@@QEAV12@AEAV?$allocator@VMat@cv@@@0@@Z
	??$_Emplace_back@AEAVMat@cv@@@?$_Uninitialized_backout_al@V?$allocator@VMat@cv@@@std@@@std@@QEAAXAEAVMat@cv@@@Z
	??$_Emplace_back@VMat@cv@@@?$_Uninitialized_backout_al@V?$allocator@VMat@cv@@@std@@@std@@QEAAX$$QEAVMat@cv@@@Z
	??$_Emplace_back_with_unused_capacity@AEBVMat@cv@@@?$vector@VMat@cv@@V?$allocator@VMat@cv@@@std@@@std@@AEAAAEAVMat@cv@@AEBV23@@Z
	??$_Emplace_one_at_back@AEBVMat@cv@@@?$vector@VMat@cv@@V?$allocator@VMat@cv@@@std@@@std@@AEAAAEAVMat@cv@@AEBV23@@Z
	??$_Emplace_reallocate@AEBVMat@cv@@@?$vector@VMat@cv@@V?$allocator@VMat@cv@@@std@@@std@@AEAAPEAVMat@cv@@QEAV23@AEBV23@@Z
	??$_Find_unchecked@PEB_W_W@std@@YAPEB_WPEB_WQEB_WAEB_W@Z
	??$_Get_size_of_n@$00@std@@YA_K_K@Z
	??$_Get_size_of_n@$01@std@@YA_K_K@Z
	??$_Get_size_of_n@$0BA@@std@@YA_K_K@Z
	??$_Get_size_of_n@$0GA@@std@@YA_K_K@Z
	??$_Get_unwrapped@AEAPEAD@std@@YA?A_TAEAPEAD@Z
	??$_Get_unwrapped@AEAPEB_W@std@@YA?A_TAEAPEB_W@Z
	??$_Get_unwrapped@AEBQEAVMat@cv@@@std@@YA?A_TAEBQEAVMat@cv@@@Z
	??$_Get_unwrapped@AEBQEB_W@std@@YA?A_TAEBQEB_W@Z
	??$_Getvals@_W@?$time_get@DV?$istreambuf_iterator@DU?$char_traits@D@std@@@std@@@std@@IEAAX_WAEBV_Locinfo@1@@Z
	??$_Getvals@_W@?$time_get@_WV?$istreambuf_iterator@_WU?$char_traits@_W@std@@@std@@@std@@IEAAX_WAEBV_Locinfo@1@@Z
	??$_Immortalize_memcpy_image@V_Generic_error_category@std@@@std@@YAAEBV_Generic_error_category@0@XZ
	??$_Immortalize_memcpy_image@V_System_error_category@std@@@std@@YAAEBV_System_error_category@0@XZ
	??$_Integral_to_string@DH@std@@YA?AV?$basic_string@DU?$char_traits@D@std@@V?$allocator@D@2@@0@H@Z
	??$_Maklocstr@D@std@@YAPEADPEBDPEADAEBU_Cvtvec@@@Z
	??$_Maklocstr@_W@std@@YAPEA_WPEBDPEA_WAEBU_Cvtvec@@@Z
	??$_Reallocate_grow_by@V<lambda_1>@?1??append@?$basic_string@DU?$char_traits@D@std@@V?$allocator@D@2@@std@@QEAAAEAV34@QEBD_K@Z@PEBD_K@?$basic_string@DU?$char_traits@D@std@@V?$allocator@D@2@@std@@AEAAAEAV01@_KV<lambda_1>@?1??append@01@QEAAAEAV01@QEBD0@Z@PEBD_K@Z
	??$_Reallocate_grow_by@V<lambda_1>@?1??append@?$basic_string@DU?$char_traits@D@std@@V?$allocator@D@2@@std@@QEAAAEAV34@_KD@Z@_KD@?$basic_string@DU?$char_traits@D@std@@V?$allocator@D@2@@std@@AEAAAEAV01@_KV<lambda_1>@?1??append@01@QEAAAEAV01@0D@Z@_KD@Z
	??$_Reallocate_grow_by@V<lambda_1>@?1??append@?$basic_string@_WU?$char_traits@_W@std@@V?$allocator@_W@2@@std@@QEAAAEAV34@_K_W@Z@_K_W@?$basic_string@_WU?$char_traits@_W@std@@V?$allocator@_W@2@@std@@AEAAAEAV01@_KV<lambda_1>@?1??append@01@QEAAAEAV01@0_W@Z@_K_W@Z
	??$_Reallocate_grow_by@V<lambda_1>@?1??push_back@?$basic_string@DU?$char_traits@D@std@@V?$allocator@D@2@@std@@QEAAXD@Z@D@?$basic_string@DU?$char_traits@D@std@@V?$allocator@D@2@@std@@AEAAAEAV01@_KV<lambda_1>@?1??push_back@01@QEAAXD@Z@D@Z
	??$_Reallocate_grow_by@V<lambda_1>@?1??reserve@?$basic_string@DU?$char_traits@D@std@@V?$allocator@D@2@@std@@QEAAX_K@Z@$$V@?$basic_string@DU?$char_traits@D@std@@V?$allocator@D@2@@std@@AEAAAEAV01@_KV<lambda_1>@?1??reserve@01@QEAAX0@Z@@Z
	??$_Seek_wrapped@PEB_WAEAPEB_W@std@@YAXAEAPEB_W0@Z
	??$_Seek_wrapped@PEB_WPEB_W@std@@YAXAEAPEB_W$$QEAPEB_W@Z
	??$_Stringoid_from_Source@DU?$char_traits@D@std@@V?$allocator@D@2@@filesystem@std@@YA?A_PAEBV?$basic_string@DU?$char_traits@D@std@@V?$allocator@D@2@@1@@Z
	??$_Stringoid_from_Source@_WU?$char_traits@_W@std@@@filesystem@std@@YA?A_PAEBV?$basic_string_view@_WU?$char_traits@_W@std@@@1@@Z
	??$_To_address@PEB_W@std@@YA?A_PAEBQEB_W@Z
	??$_Traits_equal@U?$char_traits@D@std@@@std@@YA_NQEBD_K01@Z
	??$_UIntegral_to_buff@DI@std@@YAPEADPEADI@Z
	??$_Unaligned_load@I@filesystem@std@@YAIPEBX@Z
	??$_Unfancy@D@std@@YAPEADPEAD@Z
	??$_Unfancy@U_Container_proxy@std@@@std@@YAPEAU_Container_proxy@0@PEAU10@@Z
	??$_Unfancy@V?$vector@VMat@cv@@V?$allocator@VMat@cv@@@std@@@std@@@std@@YAPEAV?$vector@VMat@cv@@V?$allocator@VMat@cv@@@std@@@0@PEAV10@@Z
	??$_Unfancy@VMat@cv@@@std@@YAPEAVMat@cv@@PEAV12@@Z
	??$_Unfancy@_W@std@@YAPEA_WPEA_W@Z
	??$_Uninitialized_copy@PEAVMat@cv@@PEAV12@V?$allocator@VMat@cv@@@std@@@std@@YAPEAVMat@cv@@PEAV12@00AEAV?$allocator@VMat@cv@@@0@@Z
	??$_Uninitialized_move@PEAVMat@cv@@V?$allocator@VMat@cv@@@std@@@std@@YAPEAVMat@cv@@QEAV12@0PEAV12@AEAV?$allocator@VMat@cv@@@0@@Z
	??$_Unwrap_iter@PEAVMat@cv@@PEAV12@@ranges@std@@YA?A_T$$QEAPEAVMat@cv@@@Z
	??$_Unwrap_sent@PEAVMat@cv@@PEAV12@@ranges@std@@YA?A_T$$QEAPEAVMat@cv@@@Z
	??$_Verify_range@D@std@@YAXQEBD0@Z
	??$_Verify_range@_W@std@@YAXQEB_W0@Z
	??$__std_find_trivial@$$CB_W_W@@YAPEB_WPEB_W0_W@Z
	??$addressof@$$CBV?$_String_val@U?$_Simple_types@D@std@@@std@@@std@@YAPEBV?$_String_val@U?$_Simple_types@D@std@@@0@AEBV10@@Z
	??$addressof@D@std@@YAPEADAEAD@Z
	??$addressof@PEAD@std@@YAPEAPEADAEAPEAD@Z
	??$addressof@PEA_W@std@@YAPEAPEA_WAEAPEA_W@Z
	??$addressof@U_Container_base12@std@@@std@@YAPEAU_Container_base12@0@AEAU10@@Z
	??$addressof@U_Container_proxy@std@@@std@@YAPEAU_Container_proxy@0@AEAU10@@Z
	??$addressof@V?$_String_val@U?$_Simple_types@D@std@@@std@@@std@@YAPEAV?$_String_val@U?$_Simple_types@D@std@@@0@AEAV10@@Z
	??$addressof@V?$basic_string@DU?$char_traits@D@std@@V?$allocator@D@2@@std@@@std@@YAPEAV?$basic_string@DU?$char_traits@D@std@@V?$allocator@D@2@@0@AEAV10@@Z
	??$addressof@_W@std@@YAPEA_WAEA_W@Z
	??$append@V?$basic_string_view@DU?$char_traits@D@std@@@std@@$0A@@?$basic_string@DU?$char_traits@D@std@@V?$allocator@D@2@@std@@QEAAAEAV01@AEBV?$basic_string_view@DU?$char_traits@D@std@@@1@@Z
	??$construct@VMat@cv@@AEAV12@@?$_Default_allocator_traits@V?$allocator@VMat@cv@@@std@@@std@@SAXAEAV?$allocator@VMat@cv@@@1@QEAVMat@cv@@AEAV34@@Z
	??$construct@VMat@cv@@AEBV12@@?$_Default_allocator_traits@V?$allocator@VMat@cv@@@std@@@std@@SAXAEAV?$allocator@VMat@cv@@@1@QEAVMat@cv@@AEBV34@@Z
	??$construct@VMat@cv@@V12@@?$_Default_allocator_traits@V?$allocator@VMat@cv@@@std@@@std@@SAXAEAV?$allocator@VMat@cv@@@1@QEAVMat@cv@@$$QEAV34@@Z
	??$construct_at@D$$V$0A@@std@@YAPEADQEAD@Z
	??$construct_at@DAEBD$0A@@std@@YAPEADQEADAEBD@Z
	??$construct_at@PEADAEAPEAD$0A@@std@@YAPEAPEADQEAPEADAEAPEAD@Z
	??$construct_at@PEADAEBQEAD$0A@@std@@YAPEAPEADQEAPEADAEBQEAD@Z
	??$construct_at@PEA_WAEBQEA_W$0A@@std@@YAPEAPEA_WQEAPEA_WAEBQEA_W@Z
	??$construct_at@U_Container_proxy@std@@PEAU_Container_base12@2@$0A@@std@@YAPEAU_Container_proxy@0@QEAU10@$$QEAPEAU_Container_base12@0@@Z
	??$construct_at@VMat@cv@@AEAV12@$0A@@std@@YAPEAVMat@cv@@QEAV12@AEAV12@@Z
	??$construct_at@VMat@cv@@AEBV12@$0A@@std@@YAPEAVMat@cv@@QEAV12@AEBV12@@Z
	??$construct_at@VMat@cv@@V12@$0A@@std@@YAPEAVMat@cv@@QEAV12@$$QEAV12@@Z
	??$construct_at@_W$$V$0A@@std@@YAPEA_WQEA_W@Z
	??$construct_at@_WAEB_W$0A@@std@@YAPEA_WQEA_WAEB_W@Z
	??$deref@H@?$QAtomicOps@H@@SA_NAEAU?$atomic@H@std@@@Z
	??$destroy@V?$vector@VMat@cv@@V?$allocator@VMat@cv@@@std@@@std@@@?$_Default_allocator_traits@V?$allocator@V?$vector@VMat@cv@@V?$allocator@VMat@cv@@@std@@@std@@@std@@@std@@SAXAEAV?$allocator@V?$vector@VMat@cv@@V?$allocator@VMat@cv@@@std@@@std@@@1@QEAV?$vector@VMat@cv@@V?$allocator@VMat@cv@@@std@@@1@@Z
	??$destroy@VMat@cv@@@?$_Default_allocator_traits@V?$allocator@VMat@cv@@@std@@@std@@SAXAEAV?$allocator@VMat@cv@@@1@QEAVMat@cv@@@Z
	??$destroy_at@V?$vector@VMat@cv@@V?$allocator@VMat@cv@@@std@@@std@@@std@@YAXQEAV?$vector@VMat@cv@@V?$allocator@VMat@cv@@@std@@@0@@Z
	??$destroy_at@VMat@cv@@@std@@YAXQEAVMat@cv@@@Z
	??$end@D$0BF@@std@@YAPEADAEAY0BF@D@Z
	??$endl@DU?$char_traits@D@std@@@std@@YAAEAV?$basic_ostream@DU?$char_traits@D@std@@@0@AEAV10@@Z
	??$exchange@PEAU_Container_proxy@std@@$$T@std@@YAPEAU_Container_proxy@0@AEAPEAU10@$$QEA$$T@Z
	??$exchange@PEAU_Iterator_base12@std@@$$T@std@@YAPEAU_Iterator_base12@0@AEAPEAU10@$$QEA$$T@Z
	??$fillRange@I$00@QRandomGenerator@@QEAAXPEAI_J@Z
	??$find@PEB_W_W@std@@YAPEB_WPEB_WQEB_WAEB_W@Z
	??$find_if@PEB_WU_Is_slash_oper@std@@@std@@YAPEB_WPEB_WQEB_WU_Is_slash_oper@0@@Z
	??$find_if_not@PEB_WU_Is_slash_oper@std@@@std@@YAPEB_WPEB_WQEB_WU_Is_slash_oper@0@@Z
	??$loadRelaxed@H@?$QAtomicOps@H@@SAHAEBU?$atomic@H@std@@@Z
	??$max@_K@std@@YAAEB_KAEB_K0@Z
	??$min@_K@std@@YAAEB_KAEB_K0@Z
	??$qMax@H@@YAAEBHAEBH0@Z
	??$ref@H@?$QAtomicOps@H@@SA_NAEAU?$atomic@H@std@@@Z
	??$string@DU?$char_traits@D@std@@V?$allocator@D@2@$0A@@path@filesystem@std@@QEBA?AV?$basic_string@DU?$char_traits@D@std@@V?$allocator@D@2@@2@AEBV?$allocator@D@2@@Z
	??$to_address@$$CB_W@std@@YAPEB_WQEB_W@Z
	??0?$QFlags@W4AllocationOption@QArrayData@@@@QEAA@W4AllocationOption@QArrayData@@@Z
	??0?$QFlags@W4Filter@QDir@@@@QEAA@VQFlag@@@Z
	??0?$QFlags@W4Filter@QDir@@@@QEAA@W4Filter@QDir@@@Z
	??0?$QFlags@W4OpenModeFlag@QIODevice@@@@QEAA@VQFlag@@@Z
	??0?$QFlags@W4OpenModeFlag@QIODevice@@@@QEAA@W4OpenModeFlag@QIODevice@@@Z
	??0?$QFlags@W4SortFlag@QDir@@@@QEAA@W4SortFlag@QDir@@@Z
	??0?$QList@UDet_Obj@Lev_PictureManager@@@@QEAA@$$QEAV0@@Z
	??0?$QList@UDet_Obj@Lev_PictureManager@@@@QEAA@AEBV0@@Z
	??0?$QList@UDet_Obj@Lev_PictureManager@@@@QEAA@XZ
	??0?$QList@VQPoint@@@@QEAA@$$QEAV0@@Z
	??0?$QList@VQPoint@@@@QEAA@AEBV0@@Z
	??0?$QList@VQPoint@@@@QEAA@XZ
	??0?$QList@VQString@@@@QEAA@XZ
	??0?$QVector@UDet_Obj@Lev_PictureManager@@@@QEAA@$$QEAV0@@Z
	??0?$QVector@UDet_Obj@Lev_PictureManager@@@@QEAA@AEBV0@@Z
	??0?$QVector@UDet_Obj@Lev_PictureManager@@@@QEAA@XZ
	??0?$QVector@V?$QList@UDet_Obj@Lev_PictureManager@@@@@@QEAA@$$QEAV0@@Z
	??0?$QVector@V?$QList@UDet_Obj@Lev_PictureManager@@@@@@QEAA@AEBV0@@Z
	??0?$QVector@V?$QList@UDet_Obj@Lev_PictureManager@@@@@@QEAA@XZ
	??0?$QVector@V?$QVector@UDet_Obj@Lev_PictureManager@@@@@@QEAA@XZ
	??0?$QVector@V?$QVector@V?$QList@UDet_Obj@Lev_PictureManager@@@@@@@@QEAA@XZ
	??0?$Rect_@H@cv@@QEAA@HHHH@Z
	??0?$Size_@H@cv@@QEAA@HH@Z
	??0?$Size_@H@cv@@QEAA@XZ
	??0?$_Container_proxy_ptr12@V?$allocator@U_Container_proxy@std@@@std@@@std@@QEAA@AEAV?$allocator@U_Container_proxy@std@@@1@AEAU_Container_base12@1@@Z
	??0?$_String_val@U?$_Simple_types@D@std@@@std@@QEAA@XZ
	??0?$_String_val@U?$_Simple_types@_W@std@@@std@@QEAA@XZ
	??0?$_Uninitialized_backout_al@V?$allocator@VMat@cv@@@std@@@std@@QEAA@PEAVMat@cv@@AEAV?$allocator@VMat@cv@@@1@@Z
	??0?$_Vector_val@U?$_Simple_types@H@std@@@std@@QEAA@XZ
	??0?$_Vector_val@U?$_Simple_types@V?$vector@VMat@cv@@V?$allocator@VMat@cv@@@std@@@std@@@std@@@std@@QEAA@XZ
	??0?$_Vector_val@U?$_Simple_types@VMat@cv@@@std@@@std@@QEAA@XZ
	??0?$allocator@D@std@@QEAA@XZ
	??0?$allocator@H@std@@QEAA@XZ
	??0?$allocator@V?$vector@VMat@cv@@V?$allocator@VMat@cv@@@std@@@std@@@std@@QEAA@XZ
	??0?$allocator@VMat@cv@@@std@@QEAA@XZ
	??0?$allocator@_W@std@@QEAA@XZ
	??0?$basic_string@DU?$char_traits@D@std@@V?$allocator@D@2@@std@@QEAA@$$QEAV01@@Z
	??0?$basic_string@DU?$char_traits@D@std@@V?$allocator@D@2@@std@@QEAA@AEBV01@@Z
	??0?$basic_string@DU?$char_traits@D@std@@V?$allocator@D@2@@std@@QEAA@AEBV?$allocator@D@1@@Z
	??0?$basic_string@DU?$char_traits@D@std@@V?$allocator@D@2@@std@@QEAA@QEBD@Z
	??0?$basic_string@DU?$char_traits@D@std@@V?$allocator@D@2@@std@@QEAA@QEBD_K@Z
	??0?$basic_string@DU?$char_traits@D@std@@V?$allocator@D@2@@std@@QEAA@U_String_constructor_concat_tag@1@AEAV01@1@Z
	??0?$basic_string@DU?$char_traits@D@std@@V?$allocator@D@2@@std@@QEAA@U_String_constructor_concat_tag@1@AEBV01@QEBD_K23@Z
	??0?$basic_string@DU?$char_traits@D@std@@V?$allocator@D@2@@std@@QEAA@XZ
	??0?$basic_string@_WU?$char_traits@_W@std@@V?$allocator@_W@2@@std@@QEAA@AEBV01@@Z
	??0?$basic_string@_WU?$char_traits@_W@std@@V?$allocator@_W@2@@std@@QEAA@XZ
	??0?$basic_string_view@DU?$char_traits@D@std@@@std@@QEAA@QEBD@Z
	??0?$basic_string_view@DU?$char_traits@D@std@@@std@@QEAA@QEBD_K@Z
	??0?$basic_string_view@_WU?$char_traits@_W@std@@@std@@QEAA@QEB_W_K@Z
	??0?$vector@HV?$allocator@H@std@@@std@@QEAA@XZ
	??0?$vector@V?$vector@VMat@cv@@V?$allocator@VMat@cv@@@std@@@std@@V?$allocator@V?$vector@VMat@cv@@V?$allocator@VMat@cv@@@std@@@std@@@2@@std@@QEAA@XZ
	??0?$vector@VMat@cv@@V?$allocator@VMat@cv@@@std@@@std@@QEAA@XZ
	??0Det_Obj@Lev_PictureManager@@QEAA@$$QEAU01@@Z
	??0Det_Obj@Lev_PictureManager@@QEAA@AEBU01@@Z
	??0Det_Obj@Lev_PictureManager@@QEAA@XZ
	??0Mat@cv@@QEAA@$$QEAV01@@Z
	??0Mat@cv@@QEAA@AEBV01@@Z
	??0Mat@cv@@QEAA@XZ
	??0MatSize@cv@@QEAA@PEAH@Z
	??0MatStep@cv@@QEAA@XZ
	??0MatStep@cv@@QEAA@_K@Z
	??0QFlag@@QEAA@H@Z
	??0QStringList@@QEAA@XZ
	??0String@cv@@QEAA@AEBV01@@Z
	??0String@cv@@QEAA@AEBV?$basic_string@DU?$char_traits@D@std@@V?$allocator@D@2@@std@@@Z
	??0String@cv@@QEAA@PEBD@Z
	??0_Basic_container_proxy_ptr12@std@@IEAA@XZ
	??0_Bxty@?$_String_val@U?$_Simple_types@D@std@@@std@@QEAA@XZ
	??0_Bxty@?$_String_val@U?$_Simple_types@_W@std@@@std@@QEAA@XZ
	??0_Container_base12@std@@QEAA@XZ
	??0_Container_proxy@std@@QEAA@PEAU_Container_base12@1@@Z
	??0_File_status_and_error@filesystem@std@@QEAA@XZ
	??0_InputArray@debug_build_guard@cv@@QEAA@AEBN@Z
	??0_InputArray@debug_build_guard@cv@@QEAA@AEBVMat@2@@Z
	??0_InputArray@debug_build_guard@cv@@QEAA@XZ
	??0_OutputArray@debug_build_guard@cv@@QEAA@AEAVMat@2@@Z
	??0_Sentry_base@?$basic_ostream@DU?$char_traits@D@std@@@std@@QEAA@AEAV12@@Z
	??0_System_error@std@@IEAA@Verror_code@1@@Z
	??0_System_error@std@@IEAA@Verror_code@1@AEBV?$basic_string@DU?$char_traits@D@std@@V?$allocator@D@2@@1@@Z
	??0_System_error@std@@QEAA@AEBV01@@Z
	??0_System_error_message@std@@QEAA@K@Z
	??0bad_alloc@std@@AEAA@QEBD@Z
	??0bad_alloc@std@@QEAA@AEBV01@@Z
	??0bad_array_new_length@std@@QEAA@AEBV01@@Z
	??0bad_array_new_length@std@@QEAA@XZ
	??0const_iterator@?$QList@UDet_Obj@Lev_PictureManager@@@@QEAA@PEAUNode@1@@Z
	??0error_code@std@@QEAA@HAEBVerror_category@1@@Z
	??0error_condition@std@@QEAA@HAEBVerror_category@1@@Z
	??0exception@std@@QEAA@AEBV01@@Z
	??0exception@std@@QEAA@QEBD@Z
	??0exception@std@@QEAA@QEBDH@Z
	??0file_status@filesystem@std@@QEAA@XZ
	??0filesystem_error@filesystem@std@@QEAA@AEBV012@@Z
	??0filesystem_error@filesystem@std@@QEAA@AEBV?$basic_string@DU?$char_traits@D@std@@V?$allocator@D@2@@2@AEBVpath@12@Verror_code@2@@Z
	??0iterator@?$QList@UDet_Obj@Lev_PictureManager@@@@QEAA@PEAUNode@1@@Z
	??0iterator@?$QList@VQFileInfo@@@@QEAA@PEAUNode@1@@Z
	??0iterator@?$QList@VQPoint@@@@QEAA@PEAUNode@1@@Z
	??0path@filesystem@std@@QEAA@AEBV012@@Z
	??0path@filesystem@std@@QEAA@XZ
	??0runtime_error@std@@QEAA@AEBV01@@Z
	??0runtime_error@std@@QEAA@AEBV?$basic_string@DU?$char_traits@D@std@@V?$allocator@D@2@@1@@Z
	??0sentry@?$basic_ostream@DU?$char_traits@D@std@@@std@@QEAA@AEAV12@@Z
	??0system_error@std@@QEAA@AEBV01@@Z
	??0system_error@std@@QEAA@Verror_code@1@@Z
	??0system_error@std@@QEAA@Verror_code@1@AEBV?$basic_string@DU?$char_traits@D@std@@V?$allocator@D@2@@1@@Z
	??1?$Ptr@VCLAHE@cv@@@cv@@QEAA@XZ
	??1?$QList@UDet_Obj@Lev_PictureManager@@@@QEAA@XZ
	??1?$QList@VQFileInfo@@@@QEAA@XZ
	??1?$QList@VQPoint@@@@QEAA@XZ
	??1?$QList@VQString@@@@QEAA@XZ
	??1?$QVector@UDet_Obj@Lev_PictureManager@@@@QEAA@XZ
	??1?$QVector@V?$QList@UDet_Obj@Lev_PictureManager@@@@@@QEAA@XZ
	??1?$QVector@V?$QVector@UDet_Obj@Lev_PictureManager@@@@@@QEAA@XZ
	??1?$QVector@V?$QVector@V?$QList@UDet_Obj@Lev_PictureManager@@@@@@@@QEAA@XZ
	??1?$_Compressed_pair@V?$allocator@D@std@@V?$_String_val@U?$_Simple_types@D@std@@@2@$00@std@@QEAA@XZ
	??1?$_Compressed_pair@V?$allocator@_W@std@@V?$_String_val@U?$_Simple_types@_W@std@@@2@$00@std@@QEAA@XZ
	??1?$_Container_proxy_ptr12@V?$allocator@U_Container_proxy@std@@@std@@@std@@QEAA@XZ
	??1?$_String_val@U?$_Simple_types@D@std@@@std@@QEAA@XZ
	??1?$_String_val@U?$_Simple_types@_W@std@@@std@@QEAA@XZ
	??1?$_Uninitialized_backout_al@V?$allocator@VMat@cv@@@std@@@std@@QEAA@XZ
	??1?$basic_string@DU?$char_traits@D@std@@V?$allocator@D@2@@std@@QEAA@XZ
	??1?$basic_string@_WU?$char_traits@_W@std@@V?$allocator@_W@2@@std@@QEAA@XZ
	??1?$big_any_policy@Uempty_any@anyimpl@cvflann@@@anyimpl@cvflann@@UEAA@XZ
	??1?$big_any_policy@VString@cv@@@anyimpl@cvflann@@UEAA@XZ
	??1?$big_any_policy@W4flann_algorithm_t@cvflann@@@anyimpl@cvflann@@UEAA@XZ
	??1?$big_any_policy@W4flann_centers_init_t@cvflann@@@anyimpl@cvflann@@UEAA@XZ
	??1?$small_any_policy@H@anyimpl@cvflann@@UEAA@XZ
	??1?$small_any_policy@I@anyimpl@cvflann@@UEAA@XZ
	??1?$small_any_policy@M@anyimpl@cvflann@@UEAA@XZ
	??1?$small_any_policy@PEBD@anyimpl@cvflann@@UEAA@XZ
	??1?$small_any_policy@_N@anyimpl@cvflann@@UEAA@XZ
	??1?$typed_base_any_policy@H@anyimpl@cvflann@@UEAA@XZ
	??1?$typed_base_any_policy@I@anyimpl@cvflann@@UEAA@XZ
	??1?$typed_base_any_policy@M@anyimpl@cvflann@@UEAA@XZ
	??1?$typed_base_any_policy@PEBD@anyimpl@cvflann@@UEAA@XZ
	??1?$typed_base_any_policy@Uempty_any@anyimpl@cvflann@@@anyimpl@cvflann@@UEAA@XZ
	??1?$typed_base_any_policy@VString@cv@@@anyimpl@cvflann@@UEAA@XZ
	??1?$typed_base_any_policy@W4flann_algorithm_t@cvflann@@@anyimpl@cvflann@@UEAA@XZ
	??1?$typed_base_any_policy@W4flann_centers_init_t@cvflann@@@anyimpl@cvflann@@UEAA@XZ
	??1?$typed_base_any_policy@_N@anyimpl@cvflann@@UEAA@XZ
	??1?$vector@HV?$allocator@H@std@@@std@@QEAA@XZ
	??1?$vector@V?$vector@VMat@cv@@V?$allocator@VMat@cv@@@std@@@std@@V?$allocator@V?$vector@VMat@cv@@V?$allocator@VMat@cv@@@std@@@std@@@2@@std@@QEAA@XZ
	??1?$vector@VMat@cv@@V?$allocator@VMat@cv@@@std@@@std@@QEAA@XZ
	??1Det_Obj@Lev_PictureManager@@QEAA@XZ
	??1Mat@cv@@QEAA@XZ
	??1QStringList@@QEAA@XZ
	??1String@cv@@QEAA@XZ
	??1_Bxty@?$_String_val@U?$_Simple_types@D@std@@@std@@QEAA@XZ
	??1_Bxty@?$_String_val@U?$_Simple_types@_W@std@@@std@@QEAA@XZ
	??1_Generic_error_category@std@@UEAA@XZ
	??1_InputArray@debug_build_guard@cv@@QEAA@XZ
	??1_OutputArray@debug_build_guard@cv@@QEAA@XZ
	??1_Sentry_base@?$basic_ostream@DU?$char_traits@D@std@@@std@@QEAA@XZ
	??1_System_error@std@@UEAA@XZ
	??1_System_error_category@std@@UEAA@XZ
	??1_System_error_message@std@@QEAA@XZ
	??1bad_alloc@std@@UEAA@XZ
	??1bad_array_new_length@std@@UEAA@XZ
	??1base_any_policy@anyimpl@cvflann@@UEAA@XZ
	??1error_category@std@@UEAA@XZ
	??1exception@std@@UEAA@XZ
	??1filesystem_error@filesystem@std@@UEAA@XZ
	??1path@filesystem@std@@QEAA@XZ
	??1runtime_error@std@@UEAA@XZ
	??1sentry@?$basic_ostream@DU?$char_traits@D@std@@@std@@QEAA@XZ
	??1system_error@std@@UEAA@XZ
	??2@YAPEAX_KPEAX@Z
	??4?$Size_@H@cv@@QEAAAEAV01@AEBV01@@Z
	??4String@cv@@QEAAAEAV01@AEBV01@@Z
	??6QStringList@@QEAAAEAV0@AEBVQString@@@Z
	??6anyimpl@cvflann@@YAAEAV?$basic_ostream@DU?$char_traits@D@std@@@std@@AEAV23@AEBUempty_any@01@@Z
	??8error_category@std@@QEBA_NAEBV01@@Z
	??8std@@YA_NAEBVerror_condition@0@0@Z
	??9const_iterator@?$QList@UDet_Obj@Lev_PictureManager@@@@QEBA_NAEBV01@@Z
	??9iterator@?$QList@UDet_Obj@Lev_PictureManager@@@@QEBA_NAEBV01@@Z
	??9iterator@?$QList@VQFileInfo@@@@QEBA_NAEBV01@@Z
	??9iterator@?$QList@VQPoint@@@@QEBA_NAEBV01@@Z
	??A?$QVector@UDet_Obj@Lev_PictureManager@@@@QEAAAEAUDet_Obj@Lev_PictureManager@@H@Z
	??A?$QVector@V?$QList@UDet_Obj@Lev_PictureManager@@@@@@QEAAAEAV?$QList@UDet_Obj@Lev_PictureManager@@@@H@Z
	??A?$QVector@V?$QVector@UDet_Obj@Lev_PictureManager@@@@@@QEAAAEAV?$QVector@UDet_Obj@Lev_PictureManager@@@@H@Z
	??A?$QVector@V?$QVector@V?$QList@UDet_Obj@Lev_PictureManager@@@@@@@@QEAAAEAV?$QVector@V?$QList@UDet_Obj@Lev_PictureManager@@@@@@H@Z
	??A?$vector@VMat@cv@@V?$allocator@VMat@cv@@@std@@@std@@QEAAAEAVMat@cv@@_K@Z
	??AMatSize@cv@@QEBAAEBHH@Z
	??AMatStep@cv@@QEAAAEA_KH@Z
	??AMatStep@cv@@QEBAAEB_KH@Z
	??B?$basic_string@_WU?$char_traits@_W@std@@V?$allocator@_W@2@@std@@QEBA?AV?$basic_string_view@_WU?$char_traits@_W@std@@@1@XZ
	??BQFlag@@QEBAHXZ
	??Bsentry@?$basic_ostream@DU?$char_traits@D@std@@@std@@QEBA_NXZ
	??C?$Ptr@VCLAHE@cv@@@cv@@QEBAPEAVCLAHE@1@XZ
	??Dconst_iterator@?$QList@UDet_Obj@Lev_PictureManager@@@@QEBAAEBUDet_Obj@Lev_PictureManager@@XZ
	??Diterator@?$QList@UDet_Obj@Lev_PictureManager@@@@QEBAAEAUDet_Obj@Lev_PictureManager@@XZ
	??Diterator@?$QList@VQFileInfo@@@@QEBAAEAVQFileInfo@@XZ
	??Diterator@?$QList@VQPoint@@@@QEBAAEAVQPoint@@XZ
	??E?$_Atomic_integral@H$03@std@@QEAAHXZ
	??Econst_iterator@?$QList@UDet_Obj@Lev_PictureManager@@@@QEAAAEAV01@XZ
	??Eiterator@?$QList@UDet_Obj@Lev_PictureManager@@@@QEAAAEAV01@XZ
	??Eiterator@?$QList@VQFileInfo@@@@QEAAAEAV01@XZ
	??Eiterator@?$QList@VQPoint@@@@QEAAAEAV01@XZ
	??F?$_Atomic_integral@H$03@std@@QEAAHXZ
	??H@YA?BVQString@@AEBV0@0@Z
	??H@YA?BVQString@@AEBV0@PEBD@Z
	??H@YA?BVQString@@AEBV0@VQChar@@@Z
	??H@YA?BVQString@@PEBDAEBV0@@Z
	??I@YA?AW4__std_fs_file_attr@@W40@0@Z
	??R<lambda_1>@?1??append@?$basic_string@DU?$char_traits@D@std@@V?$allocator@D@2@@std@@QEAAAEAV23@QEBD_K@Z@QEBA@QEAD0101@Z
	??R<lambda_1>@?1??append@?$basic_string@DU?$char_traits@D@std@@V?$allocator@D@2@@std@@QEAAAEAV23@_KD@Z@QEBA@QEADQEBD00D@Z
	??R<lambda_1>@?1??append@?$basic_string@_WU?$char_traits@_W@std@@V?$allocator@_W@2@@std@@QEAAAEAV23@_K_W@Z@QEBA@QEA_WQEB_W001@Z
	??R<lambda_1>@?1??push_back@?$basic_string@DU?$char_traits@D@std@@V?$allocator@D@2@@std@@QEAAXD@Z@QEBA@QEADQEBD_KD@Z
	??R<lambda_1>@?1??reserve@?$basic_string@DU?$char_traits@D@std@@V?$allocator@D@2@@std@@QEAAX_K@Z@QEBA@QEADQEBD0@Z
	??RMat@cv@@QEBA?AV01@AEBV?$Rect_@H@1@@Z
	??R_Is_slash_oper@std@@QEBA_N_W@Z
	??U?$QFlags@W4Filter@QDir@@@@QEBA?AV0@W4Filter@QDir@@@Z
	??U?$QFlags@W4OpenModeFlag@QIODevice@@@@QEBA?AV0@W4OpenModeFlag@QIODevice@@@Z
	??U@YA?AV?$QFlags@W4Filter@QDir@@@@W4Filter@QDir@@0@Z
	??U@YA?AV?$QFlags@W4OpenModeFlag@QIODevice@@@@W4OpenModeFlag@QIODevice@@0@Z
	??Y?$basic_string@DU?$char_traits@D@std@@V?$allocator@D@2@@std@@QEAAAEAV01@AEBV01@@Z
	??Y?$basic_string@DU?$char_traits@D@std@@V?$allocator@D@2@@std@@QEAAAEAV01@D@Z
	??_7?$big_any_policy@Uempty_any@anyimpl@cvflann@@@anyimpl@cvflann@@6B@
	??_7?$big_any_policy@VString@cv@@@anyimpl@cvflann@@6B@
	??_7?$big_any_policy@W4flann_algorithm_t@cvflann@@@anyimpl@cvflann@@6B@
	??_7?$big_any_policy@W4flann_centers_init_t@cvflann@@@anyimpl@cvflann@@6B@
	??_7?$small_any_policy@H@anyimpl@cvflann@@6B@
	??_7?$small_any_policy@I@anyimpl@cvflann@@6B@
	??_7?$small_any_policy@M@anyimpl@cvflann@@6B@
	??_7?$small_any_policy@PEBD@anyimpl@cvflann@@6B@
	??_7?$small_any_policy@_N@anyimpl@cvflann@@6B@
	??_7_Generic_error_category@std@@6B@
	??_7_System_error@std@@6B@
	??_7_System_error_category@std@@6B@
	??_7bad_alloc@std@@6B@
	??_7bad_array_new_length@std@@6B@
	??_7base_any_policy@anyimpl@cvflann@@6B@
	??_7exception@std@@6B@
	??_7filesystem_error@filesystem@std@@6B@
	??_7runtime_error@std@@6B@
	??_7system_error@std@@6B@
	??__Ksv@string_view_literals@literals@std@@YA?AV?$basic_string_view@DU?$char_traits@D@std@@@3@PEBD_K@Z
	?DeleteEmptyImagesCombine@Lev_PictureManager@@YAXAEBV?$basic_string@DU?$char_traits@D@std@@V?$allocator@D@2@@std@@@Z
	?DeleteEmptyJsonCombine@Lev_PictureManager@@YAXAEBV?$basic_string@DU?$char_traits@D@std@@V?$allocator@D@2@@std@@@Z
	?DeleteNoneJsonImages@Lev_PictureManager@@YAXAEBV?$basic_string@DU?$char_traits@D@std@@V?$allocator@D@2@@std@@0@Z
	?ReformDataset@Lev_PictureManager@@YA_NAEBV?$basic_string@DU?$char_traits@D@std@@V?$allocator@D@2@@std@@0@Z
	?ResizeSingleImage@Lev_PictureManager@@YA_NAEBV?$basic_string@DU?$char_traits@D@std@@V?$allocator@D@2@@std@@0HH@Z
	?TSDToLabelme@Lev_PictureManager@@YA_NAEBV?$basic_string@DU?$char_traits@D@std@@V?$allocator@D@2@@std@@0@Z
	?TSDToLabelme_Single@Lev_PictureManager@@YA_NAEBV?$basic_string@DU?$char_traits@D@std@@V?$allocator@D@2@@std@@00_N@Z
	?TearDataJson@Lev_PictureManager@@YA_NAEBV?$basic_string@DU?$char_traits@D@std@@V?$allocator@D@2@@std@@0HH@Z
	?TearPicture@Lev_PictureManager@@YA_NAEBV?$basic_string@DU?$char_traits@D@std@@V?$allocator@D@2@@std@@0HH@Z
	?WriteJsonFile@Lev_PictureManager@@YA_NAEBVQString@@AEBV?$QList@UDet_Obj@Lev_PictureManager@@@@@Z
	?_Activate_SSO_buffer@?$_String_val@U?$_Simple_types@D@std@@@std@@QEAAXXZ
	?_Activate_SSO_buffer@?$_String_val@U?$_Simple_types@_W@std@@@std@@QEAAXXZ
	?_Adjust_manually_vector_aligned@std@@YAXAEAPEAXAEA_K@Z
	?_Allocate@_Default_allocate_traits@std@@SAPEAX_K@Z
	?_Calculate_growth@?$basic_string@DU?$char_traits@D@std@@V?$allocator@D@2@@std@@AEBA_K_K@Z
	?_Calculate_growth@?$basic_string@DU?$char_traits@D@std@@V?$allocator@D@2@@std@@CA_K_K00@Z
	?_Calculate_growth@?$basic_string@_WU?$char_traits@_W@std@@V?$allocator@_W@2@@std@@AEBA_K_K@Z
	?_Calculate_growth@?$basic_string@_WU?$char_traits@_W@std@@V?$allocator@_W@2@@std@@CA_K_K00@Z
	?_Calculate_growth@?$vector@VMat@cv@@V?$allocator@VMat@cv@@@std@@@std@@AEBA_K_K@Z
	?_Change_array@?$vector@VMat@cv@@V?$allocator@VMat@cv@@@std@@@std@@AEAAXQEAVMat@cv@@_K1@Z
	?_Check_convert_result@std@@YAHU__std_fs_convert_result@@@Z
	?_Convert_narrow_to_wide@filesystem@std@@YA?AV?$basic_string@_WU?$char_traits@_W@std@@V?$allocator@_W@2@@2@W4__std_code_page@@V?$basic_string_view@DU?$char_traits@D@std@@@2@@Z
	?_Eos@?$basic_string@DU?$char_traits@D@std@@V?$allocator@D@2@@std@@AEAAX_K@Z
	?_Eos@?$basic_string@_WU?$char_traits@_W@std@@V?$allocator@_W@2@@std@@AEAAX_K@Z
	?_Equal@?$basic_string@DU?$char_traits@D@std@@V?$allocator@D@2@@std@@QEBA_NQEBD@Z
	?_Find_extension@filesystem@std@@YAPEB_WQEB_W0@Z
	?_Find_filename@filesystem@std@@YAPEB_WQEB_WPEB_W@Z
	?_Find_relative_path@filesystem@std@@YAPEB_WQEB_W0@Z
	?_Find_root_name_end@filesystem@std@@YAPEB_WQEB_W0@Z
	?_Get_any_status@filesystem@std@@YA?AU_File_status_and_error@12@AEBVpath@12@W4__std_fs_stats_flags@@@Z
	?_Get_first@?$_Compressed_pair@V?$allocator@D@std@@V?$_String_val@U?$_Simple_types@D@std@@@2@$00@std@@QEAAAEAV?$allocator@D@2@XZ
	?_Get_first@?$_Compressed_pair@V?$allocator@D@std@@V?$_String_val@U?$_Simple_types@D@std@@@2@$00@std@@QEBAAEBV?$allocator@D@2@XZ
	?_Get_first@?$_Compressed_pair@V?$allocator@H@std@@V?$_Vector_val@U?$_Simple_types@H@std@@@2@$00@std@@QEAAAEAV?$allocator@H@2@XZ
	?_Get_first@?$_Compressed_pair@V?$allocator@V?$vector@VMat@cv@@V?$allocator@VMat@cv@@@std@@@std@@@std@@V?$_Vector_val@U?$_Simple_types@V?$vector@VMat@cv@@V?$allocator@VMat@cv@@@std@@@std@@@std@@@2@$00@std@@QEAAAEAV?$allocator@V?$vector@VMat@cv@@V?$allocator@VMat@cv@@@std@@@std@@@2@XZ
	?_Get_first@?$_Compressed_pair@V?$allocator@VMat@cv@@@std@@V?$_Vector_val@U?$_Simple_types@VMat@cv@@@std@@@2@$00@std@@QEAAAEAV?$allocator@VMat@cv@@@2@XZ
	?_Get_first@?$_Compressed_pair@V?$allocator@VMat@cv@@@std@@V?$_Vector_val@U?$_Simple_types@VMat@cv@@@std@@@2@$00@std@@QEBAAEBV?$allocator@VMat@cv@@@2@XZ
	?_Get_first@?$_Compressed_pair@V?$allocator@_W@std@@V?$_String_val@U?$_Simple_types@_W@std@@@2@$00@std@@QEAAAEAV?$allocator@_W@2@XZ
	?_Get_first@?$_Compressed_pair@V?$allocator@_W@std@@V?$_String_val@U?$_Simple_types@_W@std@@@2@$00@std@@QEBAAEBV?$allocator@_W@2@XZ
	?_Getal@?$basic_string@DU?$char_traits@D@std@@V?$allocator@D@2@@std@@AEAAAEAV?$allocator@D@2@XZ
	?_Getal@?$basic_string@DU?$char_traits@D@std@@V?$allocator@D@2@@std@@AEBAAEBV?$allocator@D@2@XZ
	?_Getal@?$basic_string@_WU?$char_traits@_W@std@@V?$allocator@_W@2@@std@@AEAAAEAV?$allocator@_W@2@XZ
	?_Getal@?$basic_string@_WU?$char_traits@_W@std@@V?$allocator@_W@2@@std@@AEBAAEBV?$allocator@_W@2@XZ
	?_Getal@?$vector@HV?$allocator@H@std@@@std@@AEAAAEAV?$allocator@H@2@XZ
	?_Getal@?$vector@V?$vector@VMat@cv@@V?$allocator@VMat@cv@@@std@@@std@@V?$allocator@V?$vector@VMat@cv@@V?$allocator@VMat@cv@@@std@@@std@@@2@@std@@AEAAAEAV?$allocator@V?$vector@VMat@cv@@V?$allocator@VMat@cv@@@std@@@std@@@2@XZ
	?_Getal@?$vector@VMat@cv@@V?$allocator@VMat@cv@@@std@@@std@@AEAAAEAV?$allocator@VMat@cv@@@2@XZ
	?_Getal@?$vector@VMat@cv@@V?$allocator@VMat@cv@@@std@@@std@@AEBAAEBV?$allocator@VMat@cv@@@2@XZ
	?_Has_drive_letter_prefix@filesystem@std@@YA_NQEB_W0@Z
	?_Is_drive_prefix@filesystem@std@@YA_NQEB_W@Z
	?_Large_string_engaged@?$_String_val@U?$_Simple_types@D@std@@@std@@QEBA_NXZ
	?_Large_string_engaged@?$_String_val@U?$_Simple_types@_W@std@@@std@@QEBA_NXZ
	?_Make_ec@std@@YA?AVerror_code@1@W4__std_win_error@@@Z
	?_Makestr@_System_error@std@@CA?AV?$basic_string@DU?$char_traits@D@std@@V?$allocator@D@2@@2@Verror_code@2@V32@@Z
	?_Maklocwcs@std@@YAPEA_WPEB_W@Z
	?_Memcpy_val_from@?$basic_string@DU?$char_traits@D@std@@V?$allocator@D@2@@std@@AEAAXAEBV12@@Z
	?_Myptr@?$_String_val@U?$_Simple_types@D@std@@@std@@QEAAPEADXZ
	?_Myptr@?$_String_val@U?$_Simple_types@D@std@@@std@@QEBAPEBDXZ
	?_Myptr@?$_String_val@U?$_Simple_types@_W@std@@@std@@QEAAPEA_WXZ
	?_Myptr@?$_String_val@U?$_Simple_types@_W@std@@@std@@QEBAPEB_WXZ
	?_Not_good@_File_status_and_error@filesystem@std@@QEBA_NXZ
	?_Orphan_all@_Container_base12@std@@QEAAXXZ
	?_Orphan_all_locked_v3@_Container_base12@std@@AEAAXXZ
	?_Orphan_all_unlocked_v3@_Container_base12@std@@AEAAXXZ
	?_Orphan_range@?$vector@VMat@cv@@V?$allocator@VMat@cv@@@std@@@std@@AEBAXPEAVMat@cv@@0@Z
	?_Orphan_range_locked@?$vector@VMat@cv@@V?$allocator@VMat@cv@@@std@@@std@@AEBAXPEAVMat@cv@@0@Z
	?_Orphan_range_unlocked@?$vector@VMat@cv@@V?$allocator@VMat@cv@@@std@@@std@@AEBAXPEAVMat@cv@@0@Z
	?_Parse_extension@filesystem@std@@YA?AV?$basic_string_view@_WU?$char_traits@_W@std@@@2@V32@@Z
	?_Parse_filename@filesystem@std@@YA?AV?$basic_string_view@_WU?$char_traits@_W@std@@@2@V32@@Z
	?_Parse_stem@filesystem@std@@YA?AV?$basic_string_view@_WU?$char_traits@_W@std@@@2@V32@@Z
	?_Pretty_message@filesystem_error@filesystem@std@@CA?AV?$basic_string@DU?$char_traits@D@std@@V?$allocator@D@2@@3@V?$basic_string_view@DU?$char_traits@D@std@@@3@AEBVpath@23@1@Z
	?_Refresh@file_status@filesystem@std@@QEAAXW4__std_win_error@@AEBU__std_fs_stats@@@Z
	?_Release@?$_Uninitialized_backout_al@V?$allocator@VMat@cv@@@std@@@std@@QEAAPEAVMat@cv@@XZ
	?_Release@_Basic_container_proxy_ptr12@std@@QEAAXXZ
	?_Start_element_lifetimes@?$basic_string@DU?$char_traits@D@std@@V?$allocator@D@2@@std@@CAXQEAD_K@Z
	?_Start_element_lifetimes@?$basic_string@_WU?$char_traits@_W@std@@V?$allocator@_W@2@@std@@CAXQEA_W_K@Z
	?_Swap_proxy_and_iterators@?$basic_string@DU?$char_traits@D@std@@V?$allocator@D@2@@std@@AEAAXAEAV12@@Z
	?_Swap_proxy_and_iterators@_Container_base12@std@@QEAAXAEAU12@@Z
	?_Swap_proxy_and_iterators_locked@_Container_base12@std@@AEAAXAEAU12@@Z
	?_Swap_proxy_and_iterators_unlocked@_Container_base12@std@@AEAAXAEAU12@@Z
	?_Take_contents@?$basic_string@DU?$char_traits@D@std@@V?$allocator@D@2@@std@@AEAAXAEAV12@@Z
	?_Throw_bad_array_new_length@std@@YAXXZ
	?_Throw_fs_error@filesystem@std@@YAXPEBDW4__std_win_error@@AEBVpath@12@@Z
	?_Throw_system_error@std@@YAXW4errc@1@@Z
	?_Throw_system_error_from_std_win_error@std@@YAXW4__std_win_error@@@Z
	?_Tidy@?$vector@HV?$allocator@H@std@@@std@@AEAAXXZ
	?_Tidy@?$vector@V?$vector@VMat@cv@@V?$allocator@VMat@cv@@@std@@@std@@V?$allocator@V?$vector@VMat@cv@@V?$allocator@VMat@cv@@@std@@@std@@@2@@std@@AEAAXXZ
	?_Tidy@?$vector@VMat@cv@@V?$allocator@VMat@cv@@@std@@@std@@AEAAXXZ
	?_Tidy_deallocate@?$basic_string@DU?$char_traits@D@std@@V?$allocator@D@2@@std@@AEAAXXZ
	?_Tidy_deallocate@?$basic_string@_WU?$char_traits@_W@std@@V?$allocator@_W@2@@std@@AEAAXXZ
	?_Tidy_init@?$basic_string@DU?$char_traits@D@std@@V?$allocator@D@2@@std@@AEAAXXZ
	?_Tidy_init@?$basic_string@_WU?$char_traits@_W@std@@V?$allocator@_W@2@@std@@AEAAXXZ
	?_Xlen_string@std@@YAXXZ
	?_Xlength@?$vector@VMat@cv@@V?$allocator@VMat@cv@@@std@@@std@@CAXXZ
	?__empty_global_delete@@YAXPEAX@Z
	?__empty_global_delete@@YAXPEAXW4align_val_t@std@@@Z
	?__empty_global_delete@@YAXPEAX_K@Z
	?__empty_global_delete@@YAXPEAX_KW4align_val_t@std@@@Z
	?adjustBrightness@Lev_PictureManager@@YA_NAEBV?$basic_string@DU?$char_traits@D@std@@V?$allocator@D@2@@std@@0@Z
	?allocate@?$QTypedArrayData@UDet_Obj@Lev_PictureManager@@@@SAPEAU1@_KV?$QFlags@W4AllocationOption@QArrayData@@@@@Z
	?allocate@?$QTypedArrayData@V?$QList@UDet_Obj@Lev_PictureManager@@@@@@SAPEAU1@_KV?$QFlags@W4AllocationOption@QArrayData@@@@@Z
	?allocate@?$QTypedArrayData@V?$QVector@UDet_Obj@Lev_PictureManager@@@@@@SAPEAU1@_KV?$QFlags@W4AllocationOption@QArrayData@@@@@Z
	?allocate@?$QTypedArrayData@V?$QVector@V?$QList@UDet_Obj@Lev_PictureManager@@@@@@@@SAPEAU1@_KV?$QFlags@W4AllocationOption@QArrayData@@@@@Z
	?allocate@?$allocator@D@std@@QEAAPEAD_K@Z
	?allocate@?$allocator@U_Container_proxy@std@@@std@@QEAAPEAU_Container_proxy@2@_K@Z
	?allocate@?$allocator@VMat@cv@@@std@@QEAAPEAVMat@cv@@_K@Z
	?allocate@?$allocator@_W@std@@QEAAPEA_W_K@Z
	?append@?$QList@UDet_Obj@Lev_PictureManager@@@@QEAAXAEBUDet_Obj@Lev_PictureManager@@@Z
	?append@?$QList@VQPoint@@@@QEAAXAEBVQPoint@@@Z
	?append@?$QList@VQString@@@@QEAAXAEBVQString@@@Z
	?append@?$basic_string@DU?$char_traits@D@std@@V?$allocator@D@2@@std@@QEAAAEAV12@AEBV12@@Z
	?append@?$basic_string@DU?$char_traits@D@std@@V?$allocator@D@2@@std@@QEAAAEAV12@QEBD@Z
	?append@?$basic_string@DU?$char_traits@D@std@@V?$allocator@D@2@@std@@QEAAAEAV12@QEBD_K@Z
	?append@?$basic_string@DU?$char_traits@D@std@@V?$allocator@D@2@@std@@QEAAAEAV12@_KD@Z
	?append@?$basic_string@_WU?$char_traits@_W@std@@V?$allocator@_W@2@@std@@QEAAAEAV12@_K_W@Z
	?assign@?$_Char_traits@DH@std@@SAPEADQEAD_KD@Z
	?assign@?$_Char_traits@DH@std@@SAXAEADAEBD@Z
	?assign@?$_Char_traits@_WG@std@@SAPEA_WQEA_W_K_W@Z
	?assign@?$_Char_traits@_WG@std@@SAXAEA_WAEB_W@Z
	?assign@?$_Narrow_char_traits@DH@std@@SAPEADQEAD_KD@Z
	?assign@?$_Narrow_char_traits@DH@std@@SAXAEADAEBD@Z
	?assign@?$_WChar_traits@_W@std@@SAPEA_WQEA_W_K_W@Z
	?assign@?$_WChar_traits@_W@std@@SAXAEA_WAEB_W@Z
	?begin@?$QList@UDet_Obj@Lev_PictureManager@@@@QEAA?AViterator@1@XZ
	?begin@?$QList@UDet_Obj@Lev_PictureManager@@@@QEBA?AVconst_iterator@1@XZ
	?begin@?$QList@VQFileInfo@@@@QEAA?AViterator@1@XZ
	?begin@?$QList@VQPoint@@@@QEAA?AViterator@1@XZ
	?begin@?$QTypedArrayData@UDet_Obj@Lev_PictureManager@@@@QEAAPEAUDet_Obj@Lev_PictureManager@@PEAU23@@Z
	?begin@?$QTypedArrayData@V?$QList@UDet_Obj@Lev_PictureManager@@@@@@QEAAPEAV?$QList@UDet_Obj@Lev_PictureManager@@@@PEAV2@@Z
	?begin@?$QTypedArrayData@V?$QVector@UDet_Obj@Lev_PictureManager@@@@@@QEAAPEAV?$QVector@UDet_Obj@Lev_PictureManager@@@@PEAV2@@Z
	?begin@?$QTypedArrayData@V?$QVector@V?$QList@UDet_Obj@Lev_PictureManager@@@@@@@@QEAAPEAV?$QVector@V?$QList@UDet_Obj@Lev_PictureManager@@@@@@PEAV2@@Z
	?begin@?$QVector@UDet_Obj@Lev_PictureManager@@@@QEAAPEAUDet_Obj@Lev_PictureManager@@XZ
	?begin@?$QVector@V?$QList@UDet_Obj@Lev_PictureManager@@@@@@QEAAPEAV?$QList@UDet_Obj@Lev_PictureManager@@@@XZ
	?begin@?$QVector@V?$QVector@UDet_Obj@Lev_PictureManager@@@@@@QEAAPEAV?$QVector@UDet_Obj@Lev_PictureManager@@@@XZ
	?begin@?$QVector@V?$QVector@V?$QList@UDet_Obj@Lev_PictureManager@@@@@@@@QEAAPEAV?$QVector@V?$QList@UDet_Obj@Lev_PictureManager@@@@@@XZ
	?bounded@QRandomGenerator@@QEAAHH@Z
	?bounded@QRandomGenerator@@QEAAII@Z
	?bounded@QRandomGenerator@@QEAAIII@Z
	?c_str@?$basic_string@DU?$char_traits@D@std@@V?$allocator@D@2@@std@@QEBAPEBDXZ
	?c_str@?$basic_string@_WU?$char_traits@_W@std@@V?$allocator@_W@2@@std@@QEBAPEB_WXZ
	?c_str@String@cv@@QEBAPEBDXZ
	?c_str@path@filesystem@std@@QEBAPEB_WXZ
	?capacity@?$vector@VMat@cv@@V?$allocator@VMat@cv@@@std@@@std@@QEBA_KXZ
	?category@error_code@std@@QEBAAEBVerror_category@2@XZ
	?category@error_condition@std@@QEBAAEBVerror_category@2@XZ
	?clone@?$big_any_policy@Uempty_any@anyimpl@cvflann@@@anyimpl@cvflann@@UEAAXPEBQEAXPEAPEAX@Z
	?clone@?$big_any_policy@VString@cv@@@anyimpl@cvflann@@UEAAXPEBQEAXPEAPEAX@Z
	?clone@?$big_any_policy@W4flann_algorithm_t@cvflann@@@anyimpl@cvflann@@UEAAXPEBQEAXPEAPEAX@Z
	?clone@?$big_any_policy@W4flann_centers_init_t@cvflann@@@anyimpl@cvflann@@UEAAXPEBQEAXPEAPEAX@Z
	?clone@?$small_any_policy@H@anyimpl@cvflann@@UEAAXPEBQEAXPEAPEAX@Z
	?clone@?$small_any_policy@I@anyimpl@cvflann@@UEAAXPEBQEAXPEAPEAX@Z
	?clone@?$small_any_policy@M@anyimpl@cvflann@@UEAAXPEBQEAXPEAPEAX@Z
	?clone@?$small_any_policy@PEBD@anyimpl@cvflann@@UEAAXPEBQEAXPEAPEAX@Z
	?clone@?$small_any_policy@_N@anyimpl@cvflann@@UEAAXPEBQEAXPEAPEAX@Z
	?clone@Mat@cv@@QEBA?AV12@XZ
	?compare@?$_Narrow_char_traits@DH@std@@SAHQEBD0_K@Z
	?copy@?$_Char_traits@DH@std@@SAPEADQEADQEBD_K@Z
	?copy@?$_Char_traits@_WG@std@@SAPEA_WQEA_WQEB_W_K@Z
	?copyConstruct@?$QVector@UDet_Obj@Lev_PictureManager@@@@AEAAXPEBUDet_Obj@Lev_PictureManager@@0PEAU23@@Z
	?copyConstruct@?$QVector@V?$QList@UDet_Obj@Lev_PictureManager@@@@@@AEAAXPEBV?$QList@UDet_Obj@Lev_PictureManager@@@@0PEAV2@@Z
	?copy_from_value@?$big_any_policy@Uempty_any@anyimpl@cvflann@@@anyimpl@cvflann@@UEAAXPEBXPEAPEAX@Z
	?copy_from_value@?$big_any_policy@VString@cv@@@anyimpl@cvflann@@UEAAXPEBXPEAPEAX@Z
	?copy_from_value@?$big_any_policy@W4flann_algorithm_t@cvflann@@@anyimpl@cvflann@@UEAAXPEBXPEAPEAX@Z
	?copy_from_value@?$big_any_policy@W4flann_centers_init_t@cvflann@@@anyimpl@cvflann@@UEAAXPEBXPEAPEAX@Z
	?copy_from_value@?$small_any_policy@H@anyimpl@cvflann@@UEAAXPEBXPEAPEAX@Z
	?copy_from_value@?$small_any_policy@I@anyimpl@cvflann@@UEAAXPEBXPEAPEAX@Z
	?copy_from_value@?$small_any_policy@M@anyimpl@cvflann@@UEAAXPEBXPEAPEAX@Z
	?copy_from_value@?$small_any_policy@PEBD@anyimpl@cvflann@@UEAAXPEBXPEAPEAX@Z
	?copy_from_value@?$small_any_policy@_N@anyimpl@cvflann@@UEAAXPEBXPEAPEAX@Z
	?data@?$QTypedArrayData@UDet_Obj@Lev_PictureManager@@@@QEAAPEAUDet_Obj@Lev_PictureManager@@XZ
	?data@?$QTypedArrayData@V?$QList@UDet_Obj@Lev_PictureManager@@@@@@QEAAPEAV?$QList@UDet_Obj@Lev_PictureManager@@@@XZ
	?data@?$QTypedArrayData@V?$QVector@UDet_Obj@Lev_PictureManager@@@@@@QEAAPEAV?$QVector@UDet_Obj@Lev_PictureManager@@@@XZ
	?data@?$QTypedArrayData@V?$QVector@V?$QList@UDet_Obj@Lev_PictureManager@@@@@@@@QEAAPEAV?$QVector@V?$QList@UDet_Obj@Lev_PictureManager@@@@@@XZ
	?data@?$QVector@UDet_Obj@Lev_PictureManager@@@@QEAAPEAUDet_Obj@Lev_PictureManager@@XZ
	?data@?$QVector@V?$QList@UDet_Obj@Lev_PictureManager@@@@@@QEAAPEAV?$QList@UDet_Obj@Lev_PictureManager@@@@XZ
	?data@?$QVector@V?$QVector@UDet_Obj@Lev_PictureManager@@@@@@QEAAPEAV?$QVector@UDet_Obj@Lev_PictureManager@@@@XZ
	?data@?$QVector@V?$QVector@V?$QList@UDet_Obj@Lev_PictureManager@@@@@@@@QEAAPEAV?$QVector@V?$QList@UDet_Obj@Lev_PictureManager@@@@@@XZ
	?data@?$basic_string@DU?$char_traits@D@std@@V?$allocator@D@2@@std@@QEAAPEADXZ
	?data@?$basic_string@DU?$char_traits@D@std@@V?$allocator@D@2@@std@@QEBAPEBDXZ
	?data@?$basic_string@_WU?$char_traits@_W@std@@V?$allocator@_W@2@@std@@QEAAPEA_WXZ
	?data@?$basic_string_view@DU?$char_traits@D@std@@@std@@QEBAPEBDXZ
	?data@?$basic_string_view@_WU?$char_traits@_W@std@@@std@@QEBAPEB_WXZ
	?dealloc@?$QList@UDet_Obj@Lev_PictureManager@@@@AEAAXPEAUData@QListData@@@Z
	?dealloc@?$QList@VQFileInfo@@@@AEAAXPEAUData@QListData@@@Z
	?dealloc@?$QList@VQPoint@@@@AEAAXPEAUData@QListData@@@Z
	?dealloc@?$QList@VQString@@@@AEAAXPEAUData@QListData@@@Z
	?deallocate@?$QTypedArrayData@UDet_Obj@Lev_PictureManager@@@@SAXPEAUQArrayData@@@Z
	?deallocate@?$QTypedArrayData@V?$QList@UDet_Obj@Lev_PictureManager@@@@@@SAXPEAUQArrayData@@@Z
	?deallocate@?$QTypedArrayData@V?$QVector@UDet_Obj@Lev_PictureManager@@@@@@SAXPEAUQArrayData@@@Z
	?deallocate@?$QTypedArrayData@V?$QVector@V?$QList@UDet_Obj@Lev_PictureManager@@@@@@@@SAXPEAUQArrayData@@@Z
	?deallocate@?$_Default_allocator_traits@V?$allocator@U_Container_proxy@std@@@std@@@std@@SAXAEAV?$allocator@U_Container_proxy@std@@@2@QEAU_Container_proxy@2@_K@Z
	?deallocate@?$allocator@D@std@@QEAAXQEAD_K@Z
	?deallocate@?$allocator@H@std@@QEAAXQEAH_K@Z
	?deallocate@?$allocator@U_Container_proxy@std@@@std@@QEAAXQEAU_Container_proxy@2@_K@Z
	?deallocate@?$allocator@V?$vector@VMat@cv@@V?$allocator@VMat@cv@@@std@@@std@@@std@@QEAAXQEAV?$vector@VMat@cv@@V?$allocator@VMat@cv@@@std@@@2@_K@Z
	?deallocate@?$allocator@VMat@cv@@@std@@QEAAXQEAVMat@cv@@_K@Z
	?deallocate@?$allocator@_W@std@@QEAAXQEA_W_K@Z
	?decRef@PtrOwner@detail@cv@@QEAAXXZ
	?defaultConstruct@?$QVector@UDet_Obj@Lev_PictureManager@@@@AEAAXPEAUDet_Obj@Lev_PictureManager@@0@Z
	?defaultConstruct@?$QVector@V?$QList@UDet_Obj@Lev_PictureManager@@@@@@AEAAXPEAV?$QList@UDet_Obj@Lev_PictureManager@@@@0@Z
	?defaultConstruct@?$QVector@V?$QVector@UDet_Obj@Lev_PictureManager@@@@@@AEAAXPEAV?$QVector@UDet_Obj@Lev_PictureManager@@@@0@Z
	?defaultConstruct@?$QVector@V?$QVector@V?$QList@UDet_Obj@Lev_PictureManager@@@@@@@@AEAAXPEAV?$QVector@V?$QList@UDet_Obj@Lev_PictureManager@@@@@@0@Z
	?default_error_condition@_System_error_category@std@@UEBA?AVerror_condition@2@H@Z
	?default_error_condition@error_category@std@@UEBA?AVerror_condition@2@H@Z
	?deref@?$QBasicAtomicInteger@H@@QEAA_NXZ
	?deref@RefCount@QtPrivate@@QEAA_NXZ
	?destruct@?$QVector@UDet_Obj@Lev_PictureManager@@@@AEAAXPEAUDet_Obj@Lev_PictureManager@@0@Z
	?destruct@?$QVector@V?$QList@UDet_Obj@Lev_PictureManager@@@@@@AEAAXPEAV?$QList@UDet_Obj@Lev_PictureManager@@@@0@Z
	?destruct@?$QVector@V?$QVector@UDet_Obj@Lev_PictureManager@@@@@@AEAAXPEAV?$QVector@UDet_Obj@Lev_PictureManager@@@@0@Z
	?destruct@?$QVector@V?$QVector@V?$QList@UDet_Obj@Lev_PictureManager@@@@@@@@AEAAXPEAV?$QVector@V?$QList@UDet_Obj@Lev_PictureManager@@@@@@0@Z
	?detach@?$QList@UDet_Obj@Lev_PictureManager@@@@QEAAXXZ
	?detach@?$QList@VQFileInfo@@@@QEAAXXZ
	?detach@?$QList@VQPoint@@@@QEAAXXZ
	?detach@?$QVector@UDet_Obj@Lev_PictureManager@@@@QEAAXXZ
	?detach@?$QVector@V?$QList@UDet_Obj@Lev_PictureManager@@@@@@QEAAXXZ
	?detach@?$QVector@V?$QVector@UDet_Obj@Lev_PictureManager@@@@@@QEAAXXZ
	?detach@?$QVector@V?$QVector@V?$QList@UDet_Obj@Lev_PictureManager@@@@@@@@QEAAXXZ
	?detach_helper@?$QList@UDet_Obj@Lev_PictureManager@@@@AEAAXH@Z
	?detach_helper@?$QList@UDet_Obj@Lev_PictureManager@@@@AEAAXXZ
	?detach_helper@?$QList@VQFileInfo@@@@AEAAXH@Z
	?detach_helper@?$QList@VQFileInfo@@@@AEAAXXZ
	?detach_helper@?$QList@VQPoint@@@@AEAAXH@Z
	?detach_helper@?$QList@VQPoint@@@@AEAAXXZ
	?detach_helper_grow@?$QList@UDet_Obj@Lev_PictureManager@@@@AEAAPEAUNode@1@HH@Z
	?detach_helper_grow@?$QList@VQPoint@@@@AEAAPEAUNode@1@HH@Z
	?detach_helper_grow@?$QList@VQString@@@@AEAAPEAUNode@1@HH@Z
	?dims@MatSize@cv@@QEBAHXZ
	?empty@?$basic_string@DU?$char_traits@D@std@@V?$allocator@D@2@@std@@QEBA_NXZ
	?empty@?$basic_string_view@DU?$char_traits@D@std@@@std@@QEBA_NXZ
	?empty@?$basic_string_view@_WU?$char_traits@_W@std@@@std@@QEBA_NXZ
	?empty@Mat@cv@@QEBA_NXZ
	?end@?$QList@UDet_Obj@Lev_PictureManager@@@@QEAA?AViterator@1@XZ
	?end@?$QList@UDet_Obj@Lev_PictureManager@@@@QEBA?AVconst_iterator@1@XZ
	?end@?$QList@VQFileInfo@@@@QEAA?AViterator@1@XZ
	?end@?$QList@VQPoint@@@@QEAA?AViterator@1@XZ
	?end@?$QTypedArrayData@UDet_Obj@Lev_PictureManager@@@@QEAAPEAUDet_Obj@Lev_PictureManager@@PEAU23@@Z
	?end@?$QTypedArrayData@V?$QList@UDet_Obj@Lev_PictureManager@@@@@@QEAAPEAV?$QList@UDet_Obj@Lev_PictureManager@@@@PEAV2@@Z
	?end@?$QTypedArrayData@V?$QVector@UDet_Obj@Lev_PictureManager@@@@@@QEAAPEAV?$QVector@UDet_Obj@Lev_PictureManager@@@@PEAV2@@Z
	?end@?$QTypedArrayData@V?$QVector@V?$QList@UDet_Obj@Lev_PictureManager@@@@@@@@QEAAPEAV?$QVector@V?$QList@UDet_Obj@Lev_PictureManager@@@@@@PEAV2@@Z
	?end@?$QVector@UDet_Obj@Lev_PictureManager@@@@QEAAPEAUDet_Obj@Lev_PictureManager@@XZ
	?end@?$QVector@V?$QList@UDet_Obj@Lev_PictureManager@@@@@@QEAAPEAV?$QList@UDet_Obj@Lev_PictureManager@@@@XZ
	?end@?$QVector@V?$QVector@UDet_Obj@Lev_PictureManager@@@@@@QEAAPEAV?$QVector@UDet_Obj@Lev_PictureManager@@@@XZ
	?end@?$QVector@V?$QVector@V?$QList@UDet_Obj@Lev_PictureManager@@@@@@@@QEAAPEAV?$QVector@V?$QList@UDet_Obj@Lev_PictureManager@@@@@@XZ
	?enhanceBrightnessImage@Lev_PictureManager@@YA?AVMat@cv@@AEBV23@@Z
	?eof@?$_Narrow_char_traits@DH@std@@SAHXZ
	?eq_int_type@?$_Narrow_char_traits@DH@std@@SA_NAEBH0@Z
	?equivalent@error_category@std@@UEBA_NAEBVerror_code@2@H@Z
	?equivalent@error_category@std@@UEBA_NHAEBVerror_condition@2@@Z
	?extension@path@filesystem@std@@QEBA?AV123@XZ
	?filename@path@filesystem@std@@QEBA?AV123@XZ
	?freeData@?$QVector@UDet_Obj@Lev_PictureManager@@@@AEAAXPEAU?$QTypedArrayData@UDet_Obj@Lev_PictureManager@@@@@Z
	?freeData@?$QVector@V?$QList@UDet_Obj@Lev_PictureManager@@@@@@AEAAXPEAU?$QTypedArrayData@V?$QList@UDet_Obj@Lev_PictureManager@@@@@@@Z
	?freeData@?$QVector@V?$QVector@UDet_Obj@Lev_PictureManager@@@@@@AEAAXPEAU?$QTypedArrayData@V?$QVector@UDet_Obj@Lev_PictureManager@@@@@@@Z
	?freeData@?$QVector@V?$QVector@V?$QList@UDet_Obj@Lev_PictureManager@@@@@@@@AEAAXPEAU?$QTypedArrayData@V?$QVector@V?$QList@UDet_Obj@Lev_PictureManager@@@@@@@@@Z
	?generate@QRandomGenerator@@QEAAIXZ
	?generic_category@std@@YAAEBVerror_category@1@XZ
	?get_size@?$typed_base_any_policy@H@anyimpl@cvflann@@UEAA_KXZ
	?get_size@?$typed_base_any_policy@I@anyimpl@cvflann@@UEAA_KXZ
	?get_size@?$typed_base_any_policy@M@anyimpl@cvflann@@UEAA_KXZ
	?get_size@?$typed_base_any_policy@PEBD@anyimpl@cvflann@@UEAA_KXZ
	?get_size@?$typed_base_any_policy@Uempty_any@anyimpl@cvflann@@@anyimpl@cvflann@@UEAA_KXZ
	?get_size@?$typed_base_any_policy@VString@cv@@@anyimpl@cvflann@@UEAA_KXZ
	?get_size@?$typed_base_any_policy@W4flann_algorithm_t@cvflann@@@anyimpl@cvflann@@UEAA_KXZ
	?get_size@?$typed_base_any_policy@W4flann_centers_init_t@cvflann@@@anyimpl@cvflann@@UEAA_KXZ
	?get_size@?$typed_base_any_policy@_N@anyimpl@cvflann@@UEAA_KXZ
	?get_value@?$big_any_policy@Uempty_any@anyimpl@cvflann@@@anyimpl@cvflann@@UEAAPEAXPEAPEAX@Z
	?get_value@?$big_any_policy@Uempty_any@anyimpl@cvflann@@@anyimpl@cvflann@@UEAAPEBXPEBQEAX@Z
	?get_value@?$big_any_policy@VString@cv@@@anyimpl@cvflann@@UEAAPEAXPEAPEAX@Z
	?get_value@?$big_any_policy@VString@cv@@@anyimpl@cvflann@@UEAAPEBXPEBQEAX@Z
	?get_value@?$big_any_policy@W4flann_algorithm_t@cvflann@@@anyimpl@cvflann@@UEAAPEAXPEAPEAX@Z
	?get_value@?$big_any_policy@W4flann_algorithm_t@cvflann@@@anyimpl@cvflann@@UEAAPEBXPEBQEAX@Z
	?get_value@?$big_any_policy@W4flann_centers_init_t@cvflann@@@anyimpl@cvflann@@UEAAPEAXPEAPEAX@Z
	?get_value@?$big_any_policy@W4flann_centers_init_t@cvflann@@@anyimpl@cvflann@@UEAAPEBXPEBQEAX@Z
	?get_value@?$small_any_policy@H@anyimpl@cvflann@@UEAAPEAXPEAPEAX@Z
	?get_value@?$small_any_policy@H@anyimpl@cvflann@@UEAAPEBXPEBQEAX@Z
	?get_value@?$small_any_policy@I@anyimpl@cvflann@@UEAAPEAXPEAPEAX@Z
	?get_value@?$small_any_policy@I@anyimpl@cvflann@@UEAAPEBXPEBQEAX@Z
	?get_value@?$small_any_policy@M@anyimpl@cvflann@@UEAAPEAXPEAPEAX@Z
	?get_value@?$small_any_policy@M@anyimpl@cvflann@@UEAAPEBXPEBQEAX@Z
	?get_value@?$small_any_policy@PEBD@anyimpl@cvflann@@UEAAPEAXPEAPEAX@Z
	?get_value@?$small_any_policy@PEBD@anyimpl@cvflann@@UEAAPEBXPEBQEAX@Z
	?get_value@?$small_any_policy@_N@anyimpl@cvflann@@UEAAPEAXPEAPEAX@Z
	?get_value@?$small_any_policy@_N@anyimpl@cvflann@@UEAAPEBXPEBQEAX@Z
	?global@QRandomGenerator@@SAPEAV1@XZ
	?imageToBase64@Lev_PictureManager@@YA?AVQString@@AEBV2@@Z
	?init@_InputArray@debug_build_guard@cv@@IEAAXHPEBX@Z
	?init@_InputArray@debug_build_guard@cv@@IEAAXHPEBXV?$Size_@H@3@@Z
	?isDetached@?$QVector@UDet_Obj@Lev_PictureManager@@@@QEBA_NXZ
	?isDetached@?$QVector@V?$QList@UDet_Obj@Lev_PictureManager@@@@@@QEBA_NXZ
	?isDetached@?$QVector@V?$QVector@UDet_Obj@Lev_PictureManager@@@@@@QEBA_NXZ
	?isDetached@?$QVector@V?$QVector@V?$QList@UDet_Obj@Lev_PictureManager@@@@@@@@QEBA_NXZ
	?isImageFileExtend@Lev_PictureManager@@YA_NV?$basic_string@DU?$char_traits@D@std@@V?$allocator@D@2@@std@@@Z
	?isSharable@RefCount@QtPrivate@@QEBA_NXZ
	?isShared@RefCount@QtPrivate@@QEBA_NXZ
	?isStatic@RefCount@QtPrivate@@QEBA_NXZ
	?is_constant_evaluated@std@@YA_NXZ
	?is_directory@filesystem@std@@YA_NAEBVpath@12@@Z
	?is_directory@filesystem@std@@YA_NVfile_status@12@@Z
	?is_regular_file@filesystem@std@@YA_NAEBVpath@12@@Z
	?is_regular_file@filesystem@std@@YA_NVfile_status@12@@Z
	?length@?$_Narrow_char_traits@DH@std@@SA_KQEBD@Z
	?load@?$_Atomic_storage@H$03@std@@QEBAHW4memory_order@2@@Z
	?loadJson@Lev_PictureManager@@YA?AV?$QList@UDet_Obj@Lev_PictureManager@@@@AEBVQString@@@Z
	?loadRelaxed@?$QBasicAtomicInteger@H@@QEBAHXZ
	?make_error_code@std@@YA?AVerror_code@1@W4errc@1@@Z
	?max@?$numeric_limits@I@std@@SAIXZ
	?max@?$numeric_limits@_J@std@@SA_JXZ
	?max@QRandomGenerator@@SAIXZ
	?max_size@?$_Default_allocator_traits@V?$allocator@D@std@@@std@@SA_KAEBV?$allocator@D@2@@Z
	?max_size@?$_Default_allocator_traits@V?$allocator@VMat@cv@@@std@@@std@@SA_KAEBV?$allocator@VMat@cv@@@2@@Z
	?max_size@?$_Default_allocator_traits@V?$allocator@_W@std@@@std@@SA_KAEBV?$allocator@_W@2@@Z
	?max_size@?$basic_string@DU?$char_traits@D@std@@V?$allocator@D@2@@std@@QEBA_KXZ
	?max_size@?$basic_string@_WU?$char_traits@_W@std@@V?$allocator@_W@2@@std@@QEBA_KXZ
	?max_size@?$vector@VMat@cv@@V?$allocator@VMat@cv@@@std@@@std@@QEBA_KXZ
	?message@_Generic_error_category@std@@UEBA?AV?$basic_string@DU?$char_traits@D@std@@V?$allocator@D@2@@2@H@Z
	?message@_System_error_category@std@@UEBA?AV?$basic_string@DU?$char_traits@D@std@@V?$allocator@D@2@@2@H@Z
	?message@error_code@std@@QEBA?AV?$basic_string@DU?$char_traits@D@std@@V?$allocator@D@2@@2@XZ
	?move@?$_Char_traits@DH@std@@SAPEADQEADQEBD_K@Z
	?move@?$big_any_policy@Uempty_any@anyimpl@cvflann@@@anyimpl@cvflann@@UEAAXPEBQEAXPEAPEAX@Z
	?move@?$big_any_policy@VString@cv@@@anyimpl@cvflann@@UEAAXPEBQEAXPEAPEAX@Z
	?move@?$big_any_policy@W4flann_algorithm_t@cvflann@@@anyimpl@cvflann@@UEAAXPEBQEAXPEAPEAX@Z
	?move@?$big_any_policy@W4flann_centers_init_t@cvflann@@@anyimpl@cvflann@@UEAAXPEBQEAXPEAPEAX@Z
	?move@?$small_any_policy@H@anyimpl@cvflann@@UEAAXPEBQEAXPEAPEAX@Z
	?move@?$small_any_policy@I@anyimpl@cvflann@@UEAAXPEBQEAXPEAPEAX@Z
	?move@?$small_any_policy@M@anyimpl@cvflann@@UEAAXPEBQEAXPEAPEAX@Z
	?move@?$small_any_policy@PEBD@anyimpl@cvflann@@UEAAXPEBQEAXPEAPEAX@Z
	?move@?$small_any_policy@_N@anyimpl@cvflann@@UEAAXPEBQEAXPEAPEAX@Z
	?name@_Generic_error_category@std@@UEBAPEBDXZ
	?name@_System_error_category@std@@UEBAPEBDXZ
	?native@path@filesystem@std@@QEBAAEBV?$basic_string@_WU?$char_traits@_W@std@@V?$allocator@_W@2@@3@XZ
	?node_construct@?$QList@UDet_Obj@Lev_PictureManager@@@@AEAAXPEAUNode@1@AEBUDet_Obj@Lev_PictureManager@@@Z
	?node_construct@?$QList@VQPoint@@@@AEAAXPEAUNode@1@AEBVQPoint@@@Z
	?node_construct@?$QList@VQString@@@@AEAAXPEAUNode@1@AEBVQString@@@Z
	?node_copy@?$QList@UDet_Obj@Lev_PictureManager@@@@AEAAXPEAUNode@1@00@Z
	?node_copy@?$QList@VQFileInfo@@@@AEAAXPEAUNode@1@00@Z
	?node_copy@?$QList@VQPoint@@@@AEAAXPEAUNode@1@00@Z
	?node_copy@?$QList@VQString@@@@AEAAXPEAUNode@1@00@Z
	?node_destruct@?$QList@UDet_Obj@Lev_PictureManager@@@@AEAAXPEAUNode@1@0@Z
	?node_destruct@?$QList@UDet_Obj@Lev_PictureManager@@@@AEAAXPEAUNode@1@@Z
	?node_destruct@?$QList@VQFileInfo@@@@AEAAXPEAUNode@1@0@Z
	?node_destruct@?$QList@VQPoint@@@@AEAAXPEAUNode@1@0@Z
	?node_destruct@?$QList@VQPoint@@@@AEAAXPEAUNode@1@@Z
	?node_destruct@?$QList@VQString@@@@AEAAXPEAUNode@1@0@Z
	?node_destruct@?$QList@VQString@@@@AEAAXPEAUNode@1@@Z
	?permissions@file_status@filesystem@std@@QEAAXW4perms@23@@Z
	?print@?$big_any_policy@Uempty_any@anyimpl@cvflann@@@anyimpl@cvflann@@UEAAXAEAV?$basic_ostream@DU?$char_traits@D@std@@@std@@PEBQEAX@Z
	?print@?$big_any_policy@VString@cv@@@anyimpl@cvflann@@UEAAXAEAV?$basic_ostream@DU?$char_traits@D@std@@@std@@PEBQEAX@Z
	?print@?$big_any_policy@W4flann_algorithm_t@cvflann@@@anyimpl@cvflann@@UEAAXAEAV?$basic_ostream@DU?$char_traits@D@std@@@std@@PEBQEAX@Z
	?print@?$big_any_policy@W4flann_centers_init_t@cvflann@@@anyimpl@cvflann@@UEAAXAEAV?$basic_ostream@DU?$char_traits@D@std@@@std@@PEBQEAX@Z
	?print@?$small_any_policy@H@anyimpl@cvflann@@UEAAXAEAV?$basic_ostream@DU?$char_traits@D@std@@@std@@PEBQEAX@Z
	?print@?$small_any_policy@I@anyimpl@cvflann@@UEAAXAEAV?$basic_ostream@DU?$char_traits@D@std@@@std@@PEBQEAX@Z
	?print@?$small_any_policy@M@anyimpl@cvflann@@UEAAXAEAV?$basic_ostream@DU?$char_traits@D@std@@@std@@PEBQEAX@Z
	?print@?$small_any_policy@PEBD@anyimpl@cvflann@@UEAAXAEAV?$basic_ostream@DU?$char_traits@D@std@@@std@@PEBQEAX@Z
	?print@?$small_any_policy@_N@anyimpl@cvflann@@UEAAXAEAV?$basic_ostream@DU?$char_traits@D@std@@@std@@PEBQEAX@Z
	?push_back@?$basic_string@DU?$char_traits@D@std@@V?$allocator@D@2@@std@@QEAAXD@Z
	?push_back@?$vector@VMat@cv@@V?$allocator@VMat@cv@@@std@@@std@@QEAAXAEBVMat@cv@@@Z
	?realloc@?$QVector@UDet_Obj@Lev_PictureManager@@@@AEAAXHV?$QFlags@W4AllocationOption@QArrayData@@@@@Z
	?realloc@?$QVector@V?$QList@UDet_Obj@Lev_PictureManager@@@@@@AEAAXHV?$QFlags@W4AllocationOption@QArrayData@@@@@Z
	?realloc@?$QVector@V?$QVector@UDet_Obj@Lev_PictureManager@@@@@@AEAAXHV?$QFlags@W4AllocationOption@QArrayData@@@@@Z
	?realloc@?$QVector@V?$QVector@V?$QList@UDet_Obj@Lev_PictureManager@@@@@@@@AEAAXHV?$QFlags@W4AllocationOption@QArrayData@@@@@Z
	?ref@?$QBasicAtomicInteger@H@@QEAA_NXZ
	?ref@RefCount@QtPrivate@@QEAA_NXZ
	?release@?$Ptr@VCLAHE@cv@@@cv@@QEAAXXZ
	?release@Mat@cv@@QEAAXXZ
	?reserve@?$basic_string@DU?$char_traits@D@std@@V?$allocator@D@2@@std@@QEAAX_K@Z
	?resize@?$QVector@UDet_Obj@Lev_PictureManager@@@@QEAAXH@Z
	?resize@?$QVector@V?$QList@UDet_Obj@Lev_PictureManager@@@@@@QEAAXH@Z
	?resize@?$QVector@V?$QVector@UDet_Obj@Lev_PictureManager@@@@@@QEAAXH@Z
	?resize@?$QVector@V?$QVector@V?$QList@UDet_Obj@Lev_PictureManager@@@@@@@@QEAAXH@Z
	?resize@?$basic_string@DU?$char_traits@D@std@@V?$allocator@D@2@@std@@QEAAX_KD@Z
	?resize@?$basic_string@_WU?$char_traits@_W@std@@V?$allocator@_W@2@@std@@QEAAX_K_W@Z
	?select_on_container_copy_construction@?$_Default_allocator_traits@V?$allocator@D@std@@@std@@SA?AV?$allocator@D@2@AEBV32@@Z
	?select_on_container_copy_construction@?$_Default_allocator_traits@V?$allocator@_W@std@@@std@@SA?AV?$allocator@_W@2@AEBV32@@Z
	?sharedNull@?$QTypedArrayData@UDet_Obj@Lev_PictureManager@@@@SAPEAU1@XZ
	?sharedNull@?$QTypedArrayData@V?$QList@UDet_Obj@Lev_PictureManager@@@@@@SAPEAU1@XZ
	?sharedNull@?$QTypedArrayData@V?$QVector@UDet_Obj@Lev_PictureManager@@@@@@SAPEAU1@XZ
	?sharedNull@?$QTypedArrayData@V?$QVector@V?$QList@UDet_Obj@Lev_PictureManager@@@@@@@@SAPEAU1@XZ
	?size@?$basic_string@DU?$char_traits@D@std@@V?$allocator@D@2@@std@@QEBA_KXZ
	?size@?$basic_string@_WU?$char_traits@_W@std@@V?$allocator@_W@2@@std@@QEBA_KXZ
	?size@?$basic_string_view@DU?$char_traits@D@std@@@std@@QEBA_KXZ
	?size@?$basic_string_view@_WU?$char_traits@_W@std@@@std@@QEBA_KXZ
	?splitImage@Lev_PictureManager@@YA?AV?$vector@VMat@cv@@V?$allocator@VMat@cv@@@std@@@std@@AEBVMat@cv@@HH@Z
	?static_delete@?$big_any_policy@Uempty_any@anyimpl@cvflann@@@anyimpl@cvflann@@UEAAXPEAPEAX@Z
	?static_delete@?$big_any_policy@VString@cv@@@anyimpl@cvflann@@UEAAXPEAPEAX@Z
	?static_delete@?$big_any_policy@W4flann_algorithm_t@cvflann@@@anyimpl@cvflann@@UEAAXPEAPEAX@Z
	?static_delete@?$big_any_policy@W4flann_centers_init_t@cvflann@@@anyimpl@cvflann@@UEAAXPEAPEAX@Z
	?static_delete@?$small_any_policy@H@anyimpl@cvflann@@UEAAXPEAPEAX@Z
	?static_delete@?$small_any_policy@I@anyimpl@cvflann@@UEAAXPEAPEAX@Z
	?static_delete@?$small_any_policy@M@anyimpl@cvflann@@UEAAXPEAPEAX@Z
	?static_delete@?$small_any_policy@PEBD@anyimpl@cvflann@@UEAAXPEAPEAX@Z
	?static_delete@?$small_any_policy@_N@anyimpl@cvflann@@UEAAXPEAPEAX@Z
	?status@filesystem@std@@YA?AVfile_status@12@AEBVpath@12@@Z
	?stem@path@filesystem@std@@QEBA?AV123@XZ
	?string@path@filesystem@std@@QEBA?AV?$basic_string@DU?$char_traits@D@std@@V?$allocator@D@2@@3@XZ
	?system_category@std@@YAAEBVerror_category@1@XZ
	?t@Node@?$QList@UDet_Obj@Lev_PictureManager@@@@QEAAAEAUDet_Obj@Lev_PictureManager@@XZ
	?t@Node@?$QList@VQFileInfo@@@@QEAAAEAVQFileInfo@@XZ
	?t@Node@?$QList@VQPoint@@@@QEAAAEAVQPoint@@XZ
	?testFlag@?$QFlags@W4AllocationOption@QArrayData@@@@QEBA_NW4AllocationOption@QArrayData@@@Z
	?to_string@std@@YA?AV?$basic_string@DU?$char_traits@D@std@@V?$allocator@D@2@@1@H@Z
	?total@Mat@cv@@QEBA_KXZ
	?type@?$typed_base_any_policy@H@anyimpl@cvflann@@UEAAAEBVtype_info@@XZ
	?type@?$typed_base_any_policy@I@anyimpl@cvflann@@UEAAAEBVtype_info@@XZ
	?type@?$typed_base_any_policy@M@anyimpl@cvflann@@UEAAAEBVtype_info@@XZ
	?type@?$typed_base_any_policy@PEBD@anyimpl@cvflann@@UEAAAEBVtype_info@@XZ
	?type@?$typed_base_any_policy@Uempty_any@anyimpl@cvflann@@@anyimpl@cvflann@@UEAAAEBVtype_info@@XZ
	?type@?$typed_base_any_policy@VString@cv@@@anyimpl@cvflann@@UEAAAEBVtype_info@@XZ
	?type@?$typed_base_any_policy@W4flann_algorithm_t@cvflann@@@anyimpl@cvflann@@UEAAAEBVtype_info@@XZ
	?type@?$typed_base_any_policy@W4flann_centers_init_t@cvflann@@@anyimpl@cvflann@@UEAAAEBVtype_info@@XZ
	?type@?$typed_base_any_policy@_N@anyimpl@cvflann@@UEAAAEBVtype_info@@XZ
	?type@file_status@filesystem@std@@QEAAXW4file_type@23@@Z
	?type@file_status@filesystem@std@@QEBA?AW4file_type@23@XZ
	?unsharableEmpty@?$QTypedArrayData@UDet_Obj@Lev_PictureManager@@@@SAPEAU1@XZ
	?unsharableEmpty@?$QTypedArrayData@V?$QList@UDet_Obj@Lev_PictureManager@@@@@@SAPEAU1@XZ
	?unsharableEmpty@?$QTypedArrayData@V?$QVector@UDet_Obj@Lev_PictureManager@@@@@@SAPEAU1@XZ
	?unsharableEmpty@?$QTypedArrayData@V?$QVector@V?$QList@UDet_Obj@Lev_PictureManager@@@@@@@@SAPEAU1@XZ
	?value@error_code@std@@QEBAHXZ
	?value@error_condition@std@@QEBAHXZ
	?what@exception@std@@UEBAPEBDXZ
	?what@filesystem_error@filesystem@std@@UEBAPEBDXZ
	__std_is_file_not_found
	wmemcpy
	wmemset
